	.file	"Tone.cpp"
__SP_H__ = 0x3e
__SP_L__ = 0x3d
__SREG__ = 0x3f
__tmp_reg__ = 0
__zero_reg__ = 1
	.text
.Ltext0:
	.cfi_sections	.debug_frame
	.section	.text._Z4tonehjm,"ax",@progbits
.global	_Z4tonehjm
	.type	_Z4tonehjm, @function
_Z4tonehjm:
.LFB113:
	.file 1 "D:\\Downloads\\arduino-PR-beta1.9-BUILD-119\\hardware\\arduino\\avr\\cores\\arduino\\Tone.cpp"
	.loc 1 244 0
	.cfi_startproc
.LVL0:
	push r4
.LCFI0:
	.cfi_def_cfa_offset 3
	.cfi_offset 4, -2
	push r5
.LCFI1:
	.cfi_def_cfa_offset 4
	.cfi_offset 5, -3
	push r6
.LCFI2:
	.cfi_def_cfa_offset 5
	.cfi_offset 6, -4
	push r7
.LCFI3:
	.cfi_def_cfa_offset 6
	.cfi_offset 7, -5
	push r8
.LCFI4:
	.cfi_def_cfa_offset 7
	.cfi_offset 8, -6
	push r9
.LCFI5:
	.cfi_def_cfa_offset 8
	.cfi_offset 9, -7
	push r10
.LCFI6:
	.cfi_def_cfa_offset 9
	.cfi_offset 10, -8
	push r11
.LCFI7:
	.cfi_def_cfa_offset 10
	.cfi_offset 11, -9
	push r12
.LCFI8:
	.cfi_def_cfa_offset 11
	.cfi_offset 12, -10
	push r13
.LCFI9:
	.cfi_def_cfa_offset 12
	.cfi_offset 13, -11
	push r14
.LCFI10:
	.cfi_def_cfa_offset 13
	.cfi_offset 14, -12
	push r15
.LCFI11:
	.cfi_def_cfa_offset 14
	.cfi_offset 15, -13
	push r16
.LCFI12:
	.cfi_def_cfa_offset 15
	.cfi_offset 16, -14
	push r17
.LCFI13:
	.cfi_def_cfa_offset 16
	.cfi_offset 17, -15
	push r28
.LCFI14:
	.cfi_def_cfa_offset 17
	.cfi_offset 28, -16
	push r29
.LCFI15:
	.cfi_def_cfa_offset 18
	.cfi_offset 29, -17
	rcall .
	rcall .
	push __zero_reg__
.LCFI16:
	.cfi_def_cfa_offset 23
	in r28,__SP_L__
	in r29,__SP_H__
.LCFI17:
	.cfi_def_cfa_register 28
/* prologue: function */
/* frame size = 5 */
/* stack size = 21 */
.L__stack_usage = 21
	movw r16,r22
	movw r4,r18
	movw r6,r20
.LVL1:
.LBB24:
.LBB25:
.LBB26:
.LBB27:
	.loc 1 134 0
	lds r25,_ZL9tone_pins
	cp r24,r25
	breq .L2
.LVL2:
.LBE27:
.LBE26:
.LBB31:
.LBB32:
	.loc 1 141 0
	cpi r25,lo8(-1)
	brne .+2
	rjmp .L3
.LVL3:
.L1:
/* epilogue start */
.LBE32:
.LBE31:
.LBE25:
.LBE24:
	.loc 1 420 0
	pop __tmp_reg__
	pop __tmp_reg__
	pop __tmp_reg__
	pop __tmp_reg__
	pop __tmp_reg__
	pop r29
	pop r28
	pop r17
	pop r16
.LVL4:
	pop r15
	pop r14
	pop r13
	pop r12
	pop r11
	pop r10
	pop r9
	pop r8
	pop r7
	pop r6
	pop r5
	pop r4
	ret
.LVL5:
.L2:
.LBB55:
.LBB52:
.LBB36:
.LBB30:
.LBB28:
.LBB29:
	.loc 1 135 0
	ldi r30,lo8(_ZL21tone_pin_to_timer_PGM)
	ldi r31,hi8(_ZL21tone_pin_to_timer_PGM)
/* #APP */
 ;  135 "D:\Downloads\arduino-PR-beta1.9-BUILD-119\hardware\arduino\avr\cores\arduino\Tone.cpp" 1
	lpm r25, Z
	
 ;  0 "" 2
/* #NOAPP */
	std Y+5,r25
.LVL6:
.LBE29:
.LBE28:
.LBE30:
.LBE36:
.LBE52:
.LBE55:
	.loc 1 252 0
	sbrc r25,7
	rjmp .L1
.LVL7:
.L5:
	.loc 1 255 0
	ldi r22,lo8(1)
	call pinMode
.LVL8:
	.loc 1 258 0
	ldd r24,Y+5
	tst r24
	breq .L11
.L31:
	.loc 1 258 0 is_stmt 0 discriminator 1
	ldd r25,Y+5
	cpi r25,lo8(2)
	breq .+2
	rjmp .L12
.L11:
	.loc 1 260 0 is_stmt 1
	movw r8,r16
	mov r11,__zero_reg__
	mov r10,__zero_reg__
	ldi r22,0
	ldi r23,lo8(18)
	ldi r24,lo8(122)
	ldi r25,0
	movw r20,r10
	movw r18,r16
	call __udivmodsi4
	std Y+1,r18
	std Y+2,r19
	std Y+3,r20
	std Y+4,r21
	movw r12,r18
	movw r14,r20
	ldi r24,1
	sub r12,r24
	sbc r13,__zero_reg__
	sbc r14,__zero_reg__
	sbc r15,__zero_reg__
.LVL9:
	.loc 1 262 0
	ldi r25,-1
	cp r12,r25
	cpc r13,__zero_reg__
	cpc r14,__zero_reg__
	cpc r15,__zero_reg__
	breq .+2
	brsh .+2
	rjmp .L38
.LVL10:
	.loc 1 264 0
	ldi r22,lo8(64)
	ldi r23,lo8(66)
	ldi r24,lo8(15)
	ldi r25,0
	movw r20,r10
	movw r18,r16
	call __udivmodsi4
	movw r12,r18
.LVL11:
	movw r14,r20
	ldi r24,1
	sub r12,r24
	sbc r13,__zero_reg__
	sbc r14,__zero_reg__
	sbc r15,__zero_reg__
.LVL12:
	.loc 1 267 0
	ldd r25,Y+5
	cpi r25,lo8(2)
	breq .+2
	rjmp .L14
	.loc 1 267 0 is_stmt 0 discriminator 1
	ldi r24,-1
	cp r12,r24
	cpc r13,__zero_reg__
	cpc r14,__zero_reg__
	cpc r15,__zero_reg__
	breq .+2
	brsh .+2
	rjmp .L39
	.loc 1 269 0 is_stmt 1
	ldi r22,lo8(-112)
	ldi r23,lo8(-48)
	ldi r24,lo8(3)
	ldi r25,0
	movw r20,r10
	movw r18,r16
	call __udivmodsi4
	movw r12,r18
.LVL13:
	movw r14,r20
	ldi r25,1
	sub r12,r25
	sbc r13,__zero_reg__
	sbc r14,__zero_reg__
	sbc r15,__zero_reg__
.LVL14:
	.loc 1 273 0
	ldi r24,-1
	cp r12,r24
	cpc r13,__zero_reg__
	cpc r14,__zero_reg__
	cpc r15,__zero_reg__
	breq .+4
	brlo .+2
	rjmp .L16
	.loc 1 270 0
	ldi r24,lo8(3)
.LVL15:
.L23:
	.loc 1 307 0
	lds r25,177
	andi r25,lo8(-8)
	or r24,r25
.LVL16:
	.loc 1 307 0
	sts 177,r24
	rjmp .L24
.LVL17:
.L3:
.LBB56:
.LBB53:
.LBB37:
.LBB35:
.LBB33:
	.loc 1 142 0
	sts _ZL9tone_pins,r24
.LVL18:
.LBB34:
	.loc 1 143 0
	ldi r30,lo8(_ZL21tone_pin_to_timer_PGM)
	ldi r31,hi8(_ZL21tone_pin_to_timer_PGM)
/* #APP */
 ;  143 "D:\Downloads\arduino-PR-beta1.9-BUILD-119\hardware\arduino\avr\cores\arduino\Tone.cpp" 1
	lpm r25, Z
	
 ;  0 "" 2
/* #NOAPP */
	std Y+5,r25
.LVL19:
.LBE34:
.LBE33:
.LBE35:
.LBE37:
.LBB38:
	.loc 1 148 0
	cpi r25,lo8(-1)
	brne .+2
	rjmp .L1
.LBB39:
	.loc 1 154 0
	cpi r25,lo8(1)
	breq .L8
	brlo .L9
	cpi r25,lo8(2)
	brne .+2
	rjmp .L10
.LVL20:
.LBE39:
.LBE38:
.LBE53:
.LBE56:
	.loc 1 252 0
	ldd r25,Y+5
	sbrc r25,7
	rjmp .L1
	.loc 1 255 0
	ldi r22,lo8(1)
	call pinMode
.LVL21:
	rjmp .L31
.LVL22:
.L9:
.LBB57:
.LBB54:
.LBB51:
.LBB50:
.LBB40:
	.loc 1 159 0
	out 0x24,__zero_reg__
	.loc 1 160 0
	out 0x25,__zero_reg__
	.loc 1 161 0
	in r25,0x24
.LVL23:
	ori r25,lo8(2)
	out 0x24,r25
	.loc 1 162 0
	in r25,0x25
	ori r25,lo8(1)
	out 0x25,r25
.LBB41:
.LBB42:
	.loc 1 163 0
	mov r18,r24
.LVL24:
	ldi r19,0
.LVL25:
	movw r30,r18
	subi r30,lo8(-(digital_pin_to_port_PGM))
	sbci r31,hi8(-(digital_pin_to_port_PGM))
.LVL26:
	.loc 1 163 0
/* #APP */
 ;  163 "D:\Downloads\arduino-PR-beta1.9-BUILD-119\hardware\arduino\avr\cores\arduino\Tone.cpp" 1
	lpm r30, Z
	
 ;  0 "" 2
.LVL27:
/* #NOAPP */
.LBE42:
	.loc 1 163 0
	ldi r31,0
	lsl r30
	rol r31
.LVL28:
	subi r30,lo8(-(port_to_output_PGM))
	sbci r31,hi8(-(port_to_output_PGM))
.LVL29:
	.loc 1 163 0
/* #APP */
 ;  163 "D:\Downloads\arduino-PR-beta1.9-BUILD-119\hardware\arduino\avr\cores\arduino\Tone.cpp" 1
	lpm r20, Z+
	lpm r21, Z
	
 ;  0 "" 2
.LVL30:
/* #NOAPP */
.LBE41:
	.loc 1 163 0
	sts timer0_pin_port+1,r21
	sts timer0_pin_port,r20
.LVL31:
.LBB43:
	.loc 1 164 0
	movw r30,r18
	subi r30,lo8(-(digital_pin_to_bit_mask_PGM))
	sbci r31,hi8(-(digital_pin_to_bit_mask_PGM))
.LVL32:
	.loc 1 164 0
/* #APP */
 ;  164 "D:\Downloads\arduino-PR-beta1.9-BUILD-119\hardware\arduino\avr\cores\arduino\Tone.cpp" 1
	lpm r30, Z
	
 ;  0 "" 2
.LVL33:
	.loc 1 164 0
/* #NOAPP */
	sts timer0_pin_mask,r30
	std Y+5,__zero_reg__
	rjmp .L5
.LVL34:
.L8:
.LBE43:
	.loc 1 171 0
	sts 128,__zero_reg__
	.loc 1 172 0
	sts 129,__zero_reg__
	.loc 1 173 0
	lds r25,129
.LVL35:
	ori r25,lo8(8)
	sts 129,r25
	.loc 1 174 0
	lds r25,129
	ori r25,lo8(1)
	sts 129,r25
.LBB44:
.LBB45:
	.loc 1 175 0
	mov r18,r24
.LVL36:
	ldi r19,0
.LVL37:
	movw r30,r18
	subi r30,lo8(-(digital_pin_to_port_PGM))
	sbci r31,hi8(-(digital_pin_to_port_PGM))
.LVL38:
	.loc 1 175 0
/* #APP */
 ;  175 "D:\Downloads\arduino-PR-beta1.9-BUILD-119\hardware\arduino\avr\cores\arduino\Tone.cpp" 1
	lpm r30, Z
	
 ;  0 "" 2
.LVL39:
/* #NOAPP */
.LBE45:
	.loc 1 175 0
	ldi r31,0
	lsl r30
	rol r31
.LVL40:
	subi r30,lo8(-(port_to_output_PGM))
	sbci r31,hi8(-(port_to_output_PGM))
.LVL41:
	.loc 1 175 0
/* #APP */
 ;  175 "D:\Downloads\arduino-PR-beta1.9-BUILD-119\hardware\arduino\avr\cores\arduino\Tone.cpp" 1
	lpm r20, Z+
	lpm r21, Z
	
 ;  0 "" 2
.LVL42:
/* #NOAPP */
.LBE44:
	.loc 1 175 0
	sts timer1_pin_port+1,r21
	sts timer1_pin_port,r20
.LVL43:
.LBB46:
	.loc 1 176 0
	movw r30,r18
	subi r30,lo8(-(digital_pin_to_bit_mask_PGM))
	sbci r31,hi8(-(digital_pin_to_bit_mask_PGM))
.LVL44:
	.loc 1 176 0
/* #APP */
 ;  176 "D:\Downloads\arduino-PR-beta1.9-BUILD-119\hardware\arduino\avr\cores\arduino\Tone.cpp" 1
	lpm r30, Z
	
 ;  0 "" 2
.LVL45:
	.loc 1 176 0
/* #NOAPP */
	sts timer1_pin_mask,r30
	rjmp .L5
.LVL46:
.L10:
.LBE46:
	.loc 1 183 0
	sts 176,__zero_reg__
	.loc 1 184 0
	sts 177,__zero_reg__
	.loc 1 185 0
	lds r25,176
.LVL47:
	ori r25,lo8(2)
	sts 176,r25
	.loc 1 186 0
	lds r25,177
	ori r25,lo8(1)
	sts 177,r25
.LBB47:
.LBB48:
	.loc 1 187 0
	mov r18,r24
.LVL48:
	ldi r19,0
.LVL49:
	movw r30,r18
	subi r30,lo8(-(digital_pin_to_port_PGM))
	sbci r31,hi8(-(digital_pin_to_port_PGM))
.LVL50:
	.loc 1 187 0
/* #APP */
 ;  187 "D:\Downloads\arduino-PR-beta1.9-BUILD-119\hardware\arduino\avr\cores\arduino\Tone.cpp" 1
	lpm r30, Z
	
 ;  0 "" 2
.LVL51:
/* #NOAPP */
.LBE48:
	.loc 1 187 0
	ldi r31,0
	lsl r30
	rol r31
.LVL52:
	subi r30,lo8(-(port_to_output_PGM))
	sbci r31,hi8(-(port_to_output_PGM))
.LVL53:
	.loc 1 187 0
/* #APP */
 ;  187 "D:\Downloads\arduino-PR-beta1.9-BUILD-119\hardware\arduino\avr\cores\arduino\Tone.cpp" 1
	lpm r20, Z+
	lpm r21, Z
	
 ;  0 "" 2
.LVL54:
/* #NOAPP */
.LBE47:
	.loc 1 187 0
	sts timer2_pin_port+1,r21
	sts timer2_pin_port,r20
.LVL55:
.LBB49:
	.loc 1 188 0
	movw r30,r18
	subi r30,lo8(-(digital_pin_to_bit_mask_PGM))
	sbci r31,hi8(-(digital_pin_to_bit_mask_PGM))
.LVL56:
	.loc 1 188 0
/* #APP */
 ;  188 "D:\Downloads\arduino-PR-beta1.9-BUILD-119\hardware\arduino\avr\cores\arduino\Tone.cpp" 1
	lpm r30, Z
	
 ;  0 "" 2
.LVL57:
	.loc 1 188 0
/* #NOAPP */
	sts timer2_pin_mask,r30
	rjmp .L5
.LVL58:
.L14:
.LBE49:
.LBE40:
.LBE50:
.LBE51:
.LBE54:
.LBE57:
	.loc 1 273 0
	ldi r25,-1
	cp r12,r25
	cpc r13,__zero_reg__
	cpc r14,__zero_reg__
	cpc r15,__zero_reg__
	breq .+2
	brsh .+2
	rjmp .L40
	.loc 1 275 0
	ldi r22,lo8(72)
	ldi r23,lo8(-24)
	ldi r24,lo8(1)
	ldi r25,0
	movw r20,r10
	movw r18,r16
	call __udivmodsi4
	movw r12,r18
.LVL59:
	movw r14,r20
	ldi r24,1
	sub r12,r24
	sbc r13,__zero_reg__
	sbc r14,__zero_reg__
	sbc r15,__zero_reg__
.LVL60:
	.loc 1 276 0
	ldd r25,Y+5
	tst r25
	brne .+2
	rjmp .L18
.LVL61:
	.loc 1 284 0
	ldi r24,-1
	cp r12,r24
	cpc r13,__zero_reg__
	cpc r14,__zero_reg__
	cpc r15,__zero_reg__
	breq .+4
	brlo .+2
	rjmp .L37
	rjmp .L54
.L36:
	.loc 1 280 0
	ldi r22,lo8(36)
	ldi r23,lo8(-12)
	ldi r24,0
	ldi r25,0
	movw r20,r10
	movw r18,r8
	call __udivmodsi4
	movw r12,r18
.LVL62:
	movw r14,r20
	ldi r24,1
	sub r12,r24
	sbc r13,__zero_reg__
	sbc r14,__zero_reg__
	sbc r15,__zero_reg__
.LVL63:
	.loc 1 281 0
	ldi r24,lo8(5)
	.loc 1 284 0
	ldi r25,-1
	cp r12,r25
	cpc r13,__zero_reg__
	cpc r14,__zero_reg__
	cpc r15,__zero_reg__
	breq .+2
	brsh .+2
	rjmp .L23
	.loc 1 286 0
	ldi r22,lo8(18)
	ldi r23,lo8(122)
	ldi r24,0
	ldi r25,0
	movw r20,r10
	movw r18,r8
	call __udivmodsi4
	movw r12,r18
.LVL64:
	movw r14,r20
	ldi r24,1
	sub r12,r24
	sbc r13,__zero_reg__
	sbc r14,__zero_reg__
	sbc r15,__zero_reg__
.LVL65:
	rjmp .L22
.LVL66:
.L38:
	.loc 1 261 0
	ldi r24,lo8(1)
.LVL67:
.L13:
	.loc 1 299 0
	ldd r25,Y+5
	cpse r25,__zero_reg__
	rjmp .L23
.LVL68:
.L34:
	.loc 1 301 0
	in r25,0x25
	andi r25,lo8(-8)
	or r24,r25
.LVL69:
	.loc 1 301 0
	out 0x25,r24
.LVL70:
.L24:
	.loc 1 356 0
	ldi r18,lo8(-1)
	ldi r19,lo8(-1)
	movw r20,r18
	.loc 1 350 0
	cp r4,__zero_reg__
	cpc r5,__zero_reg__
	cpc r6,__zero_reg__
	cpc r7,__zero_reg__
	breq .+2
	rjmp .L26
.LVL71:
.L28:
	.loc 1 362 0
	ldd r25,Y+5
	cpi r25,lo8(1)
	brne .+2
	rjmp .L27
	cpi r25,lo8(2)
	brne .+2
	rjmp .L29
	cpse r25,__zero_reg__
	rjmp .L1
	.loc 1 367 0
	out 0x27,r12
	.loc 1 368 0
	sts timer0_toggle_count,r18
	sts timer0_toggle_count+1,r19
	sts timer0_toggle_count+2,r20
	sts timer0_toggle_count+3,r21
	.loc 1 369 0
	lds r24,110
	ori r24,lo8(2)
	sts 110,r24
	.loc 1 370 0
	rjmp .L1
.LVL72:
.L40:
	.loc 1 265 0
	ldi r24,lo8(2)
	rjmp .L13
.LVL73:
.L12:
	mov r11,__zero_reg__
	mov r10,__zero_reg__
	ldi r22,0
	ldi r23,lo8(18)
	ldi r24,lo8(122)
	ldi r25,0
	movw r20,r10
	movw r18,r16
	call __udivmodsi4
	movw r12,r18
	movw r14,r20
	ldi r24,1
	sub r12,r24
	sbc r13,__zero_reg__
	sbc r14,__zero_reg__
	sbc r15,__zero_reg__
.LVL74:
	.loc 1 321 0
	cp r12,__zero_reg__
	cpc r13,__zero_reg__
	ldi r25,1
	cpc r14,r25
	cpc r15,__zero_reg__
	brlo .L41
	.loc 1 323 0
	ldi r22,lo8(72)
	ldi r23,lo8(-24)
	ldi r24,lo8(1)
	ldi r25,0
	movw r20,r10
	movw r18,r16
	call __udivmodsi4
	movw r12,r18
	movw r14,r20
	ldi r24,1
	sub r12,r24
	sbc r13,__zero_reg__
	sbc r14,__zero_reg__
	sbc r15,__zero_reg__
.LVL75:
	.loc 1 324 0
	ldi r25,lo8(3)
.LVL76:
.L25:
	.loc 1 327 0
	ldd r24,Y+5
	cpi r24,lo8(1)
	breq .+2
	rjmp .L24
	.loc 1 330 0
	lds r24,129
	andi r24,lo8(-8)
	or r24,r25
	.loc 1 330 0
	sts 129,r24
	.loc 1 356 0
	ldi r18,lo8(-1)
	ldi r19,lo8(-1)
	movw r20,r18
	.loc 1 350 0
	cp r4,__zero_reg__
	cpc r5,__zero_reg__
	cpc r6,__zero_reg__
	cpc r7,__zero_reg__
	breq .L27
.LVL77:
.L26:
	.loc 1 352 0
	movw r26,r16
	lsl r26
	rol r27
	movw r20,r6
	movw r18,r4
	call __muluhisi3
	ldi r18,lo8(-24)
	ldi r19,lo8(3)
	ldi r20,0
	ldi r21,0
	call __udivmodsi4
.LVL78:
	rjmp .L28
.LVL79:
.L41:
	.loc 1 320 0
	ldi r25,lo8(1)
	rjmp .L25
.LVL80:
.L27:
	.loc 1 375 0
	sts 136+1,r13
	sts 136,r12
	.loc 1 376 0
	sts timer1_toggle_count,r18
	sts timer1_toggle_count+1,r19
	sts timer1_toggle_count+2,r20
	sts timer1_toggle_count+3,r21
	.loc 1 377 0
	lds r24,111
	ori r24,lo8(2)
	sts 111,r24
	.loc 1 384 0
	rjmp .L1
.L29:
	.loc 1 388 0
	sts 179,r12
	.loc 1 389 0
	sts timer2_toggle_count,r18
	sts timer2_toggle_count+1,r19
	sts timer2_toggle_count+2,r20
	sts timer2_toggle_count+3,r21
	.loc 1 390 0
	lds r24,112
	ori r24,lo8(2)
	sts 112,r24
	.loc 1 420 0
	rjmp .L1
.LVL81:
.L21:
	.loc 1 287 0
	ldi r24,lo8(4)
	.loc 1 288 0
	ldi r25,-1
	cp r12,r25
	cpc r13,__zero_reg__
	cpc r14,__zero_reg__
	cpc r15,__zero_reg__
	breq .+2
	brsh .+2
	rjmp .L34
	.loc 1 291 0
	ldd r12,Y+1
	ldd r13,Y+2
	ldd r14,Y+3
	ldd r15,Y+4
.LVL82:
	ldi r24,10
	1:
	lsr r15
	ror r14
	ror r13
	ror r12
	dec r24
	brne 1b
	ldi r24,1
	sub r12,r24
	sbc r13,__zero_reg__
	sbc r14,__zero_reg__
	sbc r15,__zero_reg__
.LVL83:
	.loc 1 292 0
	ldi r24,lo8(5)
	rjmp .L34
.LVL84:
.L16:
	.loc 1 275 0
	ldi r22,lo8(72)
	ldi r23,lo8(-24)
	ldi r24,lo8(1)
	ldi r25,0
	movw r20,r10
	movw r18,r16
	call __udivmodsi4
	movw r12,r18
.LVL85:
	movw r14,r20
	ldi r24,1
	sub r12,r24
	sbc r13,__zero_reg__
	sbc r14,__zero_reg__
	sbc r15,__zero_reg__
.LVL86:
	.loc 1 278 0
	ldi r25,-1
	cp r12,r25
	cpc r13,__zero_reg__
	cpc r14,__zero_reg__
	cpc r15,__zero_reg__
	breq .+4
	brlo .+2
	rjmp .L36
.L54:
	.loc 1 276 0
	ldi r24,lo8(4)
	rjmp .L23
.LVL87:
.L18:
	ldi r24,lo8(3)
	.loc 1 284 0
	ldi r25,-1
	cp r12,r25
	cpc r13,__zero_reg__
	cpc r14,__zero_reg__
	cpc r15,__zero_reg__
	breq .+2
	brsh .+2
	rjmp .L34
.LVL88:
.L37:
	.loc 1 286 0
	ldi r22,lo8(18)
	ldi r23,lo8(122)
	ldi r24,0
	ldi r25,0
	movw r20,r10
	movw r18,r8
	call __udivmodsi4
	movw r12,r18
.LVL89:
	movw r14,r20
	ldi r24,1
	sub r12,r24
	sbc r13,__zero_reg__
	sbc r14,__zero_reg__
	sbc r15,__zero_reg__
.LVL90:
	.loc 1 287 0
	ldd r25,Y+5
	tst r25
	brne .+2
	rjmp .L21
.L22:
.LVL91:
	ldi r24,lo8(6)
	.loc 1 288 0
	ldi r25,-1
	cp r12,r25
	cpc r13,__zero_reg__
	cpc r14,__zero_reg__
	cpc r15,__zero_reg__
	breq .+2
	brsh .+2
	rjmp .L23
	.loc 1 291 0
	ldd r12,Y+1
	ldd r13,Y+2
	ldd r14,Y+3
	ldd r15,Y+4
.LVL92:
	ldi r25,10
	1:
	lsr r15
	ror r14
	ror r13
	ror r12
	dec r25
	brne 1b
	ldi r24,1
	sub r12,r24
	sbc r13,__zero_reg__
	sbc r14,__zero_reg__
	sbc r15,__zero_reg__
.LVL93:
	.loc 1 292 0
	ldi r24,lo8(7)
	rjmp .L23
.LVL94:
.L39:
	.loc 1 265 0
	ldi r24,lo8(2)
.LVL95:
	rjmp .L23
	.cfi_endproc
.LFE113:
	.size	_Z4tonehjm, .-_Z4tonehjm
	.section	.text._Z12disableTimerh,"ax",@progbits
.global	_Z12disableTimerh
	.type	_Z12disableTimerh, @function
_Z12disableTimerh:
.LFB114:
	.loc 1 427 0
	.cfi_startproc
.LVL96:
/* prologue: function */
/* frame size = 0 */
/* stack size = 0 */
.L__stack_usage = 0
	.loc 1 428 0
	cpi r24,lo8(1)
	breq .L57
	brlo .L58
	cpi r24,lo8(2)
	breq .L59
	ret
.L58:
	.loc 1 432 0
	sts 110,__zero_reg__
	.loc 1 436 0
	ret
.L57:
	.loc 1 440 0
	lds r24,111
.LVL97:
	andi r24,lo8(-3)
	sts 111,r24
	.loc 1 441 0
	ret
.LVL98:
.L59:
.LBB60:
.LBB61:
	.loc 1 446 0
	lds r24,112
.LVL99:
	andi r24,lo8(-3)
	sts 112,r24
	.loc 1 449 0
	ldi r24,lo8(1)
	sts 176,r24
	.loc 1 452 0
	lds r24,177
	.loc 1 452 0
	andi r24,lo8(-8)
	ori r24,lo8(4)
	.loc 1 452 0
	sts 177,r24
	.loc 1 455 0
	sts 179,__zero_reg__
/* epilogue start */
.LBE61:
.LBE60:
	.loc 1 477 0
	ret
	.cfi_endproc
.LFE114:
	.size	_Z12disableTimerh, .-_Z12disableTimerh
	.section	.text._Z6noToneh,"ax",@progbits
.global	_Z6noToneh
	.type	_Z6noToneh, @function
_Z6noToneh:
.LFB115:
	.loc 1 481 0
	.cfi_startproc
.LVL100:
	push r28
.LCFI18:
	.cfi_def_cfa_offset 3
	.cfi_offset 28, -2
/* prologue: function */
/* frame size = 0 */
/* stack size = 1 */
.L__stack_usage = 1
	mov r28,r24
.LVL101:
.LBB62:
.LBB63:
	.loc 1 485 0
	lds r24,_ZL9tone_pins
.LVL102:
	cpse r28,r24
	rjmp .L62
.LVL103:
.LBB64:
.LBB65:
	.loc 1 486 0
	ldi r30,lo8(_ZL21tone_pin_to_timer_PGM)
	ldi r31,hi8(_ZL21tone_pin_to_timer_PGM)
/* #APP */
 ;  486 "D:\Downloads\arduino-PR-beta1.9-BUILD-119\hardware\arduino\avr\cores\arduino\Tone.cpp" 1
	lpm r24, Z
	
 ;  0 "" 2
.LVL104:
/* #NOAPP */
.LBE65:
	.loc 1 487 0
	ldi r25,lo8(-1)
	sts _ZL9tone_pins,r25
.LVL105:
.L61:
.LBE64:
.LBE63:
.LBE62:
	.loc 1 492 0
	call _Z12disableTimerh
.LVL106:
	.loc 1 494 0
	ldi r22,0
	mov r24,r28
/* epilogue start */
	.loc 1 495 0
	pop r28
.LVL107:
	.loc 1 494 0
	jmp digitalWrite
.LVL108:
.L62:
	.loc 1 482 0
	ldi r24,lo8(-1)
	rjmp .L61
	.cfi_endproc
.LFE115:
	.size	_Z6noToneh, .-_Z6noToneh
	.section	.text.__vector_7,"ax",@progbits
.global	__vector_7
	.type	__vector_7, @function
__vector_7:
.LFB116:
	.loc 1 539 0
	.cfi_startproc
	push r1
.LCFI19:
	.cfi_def_cfa_offset 3
	.cfi_offset 1, -2
	push r0
.LCFI20:
	.cfi_def_cfa_offset 4
	.cfi_offset 0, -3
	in r0,__SREG__
	push r0
	clr __zero_reg__
	push r18
.LCFI21:
	.cfi_def_cfa_offset 5
	.cfi_offset 18, -4
	push r19
.LCFI22:
	.cfi_def_cfa_offset 6
	.cfi_offset 19, -5
	push r20
.LCFI23:
	.cfi_def_cfa_offset 7
	.cfi_offset 20, -6
	push r21
.LCFI24:
	.cfi_def_cfa_offset 8
	.cfi_offset 21, -7
	push r22
.LCFI25:
	.cfi_def_cfa_offset 9
	.cfi_offset 22, -8
	push r23
.LCFI26:
	.cfi_def_cfa_offset 10
	.cfi_offset 23, -9
	push r24
.LCFI27:
	.cfi_def_cfa_offset 11
	.cfi_offset 24, -10
	push r25
.LCFI28:
	.cfi_def_cfa_offset 12
	.cfi_offset 25, -11
	push r26
.LCFI29:
	.cfi_def_cfa_offset 13
	.cfi_offset 26, -12
	push r27
.LCFI30:
	.cfi_def_cfa_offset 14
	.cfi_offset 27, -13
	push r30
.LCFI31:
	.cfi_def_cfa_offset 15
	.cfi_offset 30, -14
	push r31
.LCFI32:
	.cfi_def_cfa_offset 16
	.cfi_offset 31, -15
/* prologue: Signal */
/* frame size = 0 */
/* stack size = 15 */
.L__stack_usage = 15
	.loc 1 541 0
	lds r24,timer2_toggle_count
	lds r25,timer2_toggle_count+1
	lds r26,timer2_toggle_count+2
	lds r27,timer2_toggle_count+3
	or r24,r25
	or r24,r26
	or r24,r27
	breq .L64
	.loc 1 544 0
	lds r25,timer2_pin_mask
	lds r30,timer2_pin_port
	lds r31,timer2_pin_port+1
	ld r24,Z
	eor r24,r25
	st Z,r24
	.loc 1 546 0
	lds r24,timer2_toggle_count
	lds r25,timer2_toggle_count+1
	lds r26,timer2_toggle_count+2
	lds r27,timer2_toggle_count+3
	cp __zero_reg__,r24
	cpc __zero_reg__,r25
	cpc __zero_reg__,r26
	cpc __zero_reg__,r27
	brge .L63
	.loc 1 547 0
	lds r24,timer2_toggle_count
	lds r25,timer2_toggle_count+1
	lds r26,timer2_toggle_count+2
	lds r27,timer2_toggle_count+3
	sbiw r24,1
	sbc r26,__zero_reg__
	sbc r27,__zero_reg__
	sts timer2_toggle_count,r24
	sts timer2_toggle_count+1,r25
	sts timer2_toggle_count+2,r26
	sts timer2_toggle_count+3,r27
.L63:
/* epilogue start */
	.loc 1 558 0
	pop r31
	pop r30
	pop r27
	pop r26
	pop r25
	pop r24
	pop r23
	pop r22
	pop r21
	pop r20
	pop r19
	pop r18
	pop r0
	out __SREG__,r0
	pop r0
	pop r1
	reti
.L64:
	.loc 1 554 0
	lds r24,_ZL9tone_pins
	call _Z6noToneh
.LVL109:
	.loc 1 558 0
	rjmp .L63
	.cfi_endproc
.LFE116:
	.size	__vector_7, .-__vector_7
	.section	.data._ZL9tone_pins,"aw",@progbits
	.type	_ZL9tone_pins, @object
	.size	_ZL9tone_pins, 1
_ZL9tone_pins:
	.byte	-1
	.section	.progmem.data._ZL21tone_pin_to_timer_PGM,"a",@progbits
	.type	_ZL21tone_pin_to_timer_PGM, @object
	.size	_ZL21tone_pin_to_timer_PGM, 1
_ZL21tone_pin_to_timer_PGM:
	.byte	2
.global	timer2_pin_mask
	.section	.bss.timer2_pin_mask,"aw",@nobits
	.type	timer2_pin_mask, @object
	.size	timer2_pin_mask, 1
timer2_pin_mask:
	.zero	1
.global	timer2_pin_port
	.section	.bss.timer2_pin_port,"aw",@nobits
	.type	timer2_pin_port, @object
	.size	timer2_pin_port, 2
timer2_pin_port:
	.zero	2
.global	timer2_toggle_count
	.section	.bss.timer2_toggle_count,"aw",@nobits
	.type	timer2_toggle_count, @object
	.size	timer2_toggle_count, 4
timer2_toggle_count:
	.zero	4
.global	timer1_pin_mask
	.section	.bss.timer1_pin_mask,"aw",@nobits
	.type	timer1_pin_mask, @object
	.size	timer1_pin_mask, 1
timer1_pin_mask:
	.zero	1
.global	timer1_pin_port
	.section	.bss.timer1_pin_port,"aw",@nobits
	.type	timer1_pin_port, @object
	.size	timer1_pin_port, 2
timer1_pin_port:
	.zero	2
.global	timer1_toggle_count
	.section	.bss.timer1_toggle_count,"aw",@nobits
	.type	timer1_toggle_count, @object
	.size	timer1_toggle_count, 4
timer1_toggle_count:
	.zero	4
.global	timer0_pin_mask
	.section	.bss.timer0_pin_mask,"aw",@nobits
	.type	timer0_pin_mask, @object
	.size	timer0_pin_mask, 1
timer0_pin_mask:
	.zero	1
.global	timer0_pin_port
	.section	.bss.timer0_pin_port,"aw",@nobits
	.type	timer0_pin_port, @object
	.size	timer0_pin_port, 2
timer0_pin_port:
	.zero	2
.global	timer0_toggle_count
	.section	.bss.timer0_toggle_count,"aw",@nobits
	.type	timer0_toggle_count, @object
	.size	timer0_toggle_count, 4
timer0_toggle_count:
	.zero	4
	.text
.Letext0:
	.file 2 "d:\\downloads\\arduino-pr-beta1.9-build-119\\hardware\\tools\\avr\\avr\\include\\stdint.h"
	.file 3 "d:\\downloads\\arduino-pr-beta1.9-build-119\\hardware\\tools\\avr\\lib\\gcc\\avr\\7.3.0\\include\\stddef.h"
	.file 4 "d:\\downloads\\arduino-pr-beta1.9-build-119\\hardware\\tools\\avr\\avr\\include\\stdlib.h"
	.file 5 "D:\\Downloads\\arduino-PR-beta1.9-BUILD-119\\hardware\\arduino\\avr\\cores\\arduino\\Arduino.h"
	.file 6 "d:\\downloads\\arduino-pr-beta1.9-build-119\\hardware\\tools\\avr\\avr\\include\\stdio.h"
	.file 7 "D:\\Downloads\\arduino-PR-beta1.9-BUILD-119\\hardware\\arduino\\avr\\cores\\arduino\\HardwareSerial.h"
	.file 8 "D:\\Downloads\\arduino-PR-beta1.9-BUILD-119/hardware/arduino/avr/variants/standard/pins_arduino.h"
	.file 9 "D:\\Downloads\\arduino-PR-beta1.9-BUILD-119\\hardware\\arduino\\avr\\cores\\arduino\\Stream.h"
	.file 10 "D:\\Downloads\\arduino-PR-beta1.9-BUILD-119\\hardware\\arduino\\avr\\cores\\arduino\\Print.h"