	.file	"ee_oo_api_osek.c"
__SP_H__ = 0x3e
__SP_L__ = 0x3d
__SREG__ = 0x3f
__tmp_reg__ = 0
__zero_reg__ = 1
	.text
.Ltext0:
	.cfi_sections	.debug_frame
	.section	.text.DisableAllInterrupts,"ax",@progbits
.global	DisableAllInterrupts
	.type	DisableAllInterrupts, @function
DisableAllInterrupts:
.LFB56:
	.file 1 "C:\\Users\\gabri\\OneDrive\\Desktop\\OS4ES_~1\\test\\erika\\src\\ee_oo_api_osek.c"
	.loc 1 64 0
	.cfi_startproc
/* prologue: function */
/* frame size = 0 */
/* stack size = 0 */
.L__stack_usage = 0
	.loc 1 66 0
	lds r30,osEE_cdb_var
	lds r31,osEE_cdb_var+1
.LBB393:
.LBB394:
	.file 2 "C:\\Users\\gabri\\OneDrive\\Desktop\\OS4ES_~1\\test\\erika\\src\\ee_hal_internal.h"
	.loc 2 105 0
/* #APP */
 ;  105 "C:\Users\gabri\OneDrive\Desktop\OS4ES_~1\test\erika\src\ee_hal_internal.h" 1
	cli
 ;  0 "" 2
.LVL0:
/* #NOAPP */
.LBE394:
.LBE393:
	.loc 1 73 0
	ldi r24,lo8(1)
	std Z+17,r24
.LVL1:
/* epilogue start */
	.loc 1 76 0
	ret
	.cfi_endproc
.LFE56:
	.size	DisableAllInterrupts, .-DisableAllInterrupts
	.section	.text.EnableAllInterrupts,"ax",@progbits
.global	EnableAllInterrupts
	.type	EnableAllInterrupts, @function
EnableAllInterrupts:
.LFB57:
	.loc 1 83 0
	.cfi_startproc
/* prologue: function */
/* frame size = 0 */
/* stack size = 0 */
.L__stack_usage = 0
	.loc 1 90 0
	lds r30,osEE_cdb_var
	lds r31,osEE_cdb_var+1
.LVL2:
	.loc 1 96 0
	ldd r24,Z+17
	tst r24
	breq .L2
	.loc 1 97 0
	std Z+17,__zero_reg__
.LBB395:
.LBB396:
	.loc 2 110 0
/* #APP */
 ;  110 "C:\Users\gabri\OneDrive\Desktop\OS4ES_~1\test\erika\src\ee_hal_internal.h" 1
	sei
 ;  0 "" 2
.LVL3:
/* #NOAPP */
.L2:
/* epilogue start */
.LBE396:
.LBE395:
	.loc 1 104 0
	ret
	.cfi_endproc
.LFE57:
	.size	EnableAllInterrupts, .-EnableAllInterrupts
	.section	.text.SuspendAllInterrupts,"ax",@progbits
.global	SuspendAllInterrupts
	.type	SuspendAllInterrupts, @function
SuspendAllInterrupts:
.LFB59:
	.loc 1 133 0
	.cfi_startproc
/* prologue: function */
/* frame size = 0 */
/* stack size = 0 */
.L__stack_usage = 0
	.loc 1 135 0
	lds r30,osEE_cdb_var
	lds r31,osEE_cdb_var+1
.LVL4:
.LBB409:
.LBB410:
	.loc 1 113 0
	ldd r24,Z+15
	cpse r24,__zero_reg__
	rjmp .L8
.LBB411:
.LBB412:
.LBB413:
	.loc 2 116 0
	in r24,__SREG__
.LVL5:
.LBB414:
.LBB415:
	.loc 2 105 0
/* #APP */
 ;  105 "C:\Users\gabri\OneDrive\Desktop\OS4ES_~1\test\erika\src\ee_hal_internal.h" 1
	cli
 ;  0 "" 2
.LVL6:
/* #NOAPP */
.LBE415:
.LBE414:
.LBE413:
.LBE412:
	.loc 1 115 0
	std Z+13,r24
	.loc 1 116 0
	ldd r24,Z+15
.L12:
.LBE411:
	.loc 1 118 0
	subi r24,lo8(-(1))
	std Z+15,r24
/* epilogue start */
.LBE410:
.LBE409:
	.loc 1 146 0
	ret
.L8:
.LBB421:
.LBB420:
	.loc 1 117 0
	cpi r24,lo8(-1)
	brne .L12
.LVL7:
.LBB416:
.LBB417:
	.file 3 "C:\\Users\\gabri\\OneDrive\\Desktop\\OS4ES_~1\\test\\erika\\src\\ee_kernel.h"
	.loc 3 694 0
	ldi r24,lo8(3)
	ldi r25,0
	std Z+9,r25
	std Z+8,r24
	.loc 3 696 0
	ldi r24,lo8(25)
	ldi r25,0
	std Z+12,r25
	std Z+11,r24
.LBB418:
.LBB419:
	.loc 2 105 0
/* #APP */
 ;  105 "C:\Users\gabri\OneDrive\Desktop\OS4ES_~1\test\erika\src\ee_hal_internal.h" 1
	cli
 ;  0 "" 2
/* #NOAPP */
.L11:
	rjmp .L11
.LBE419:
.LBE418:
.LBE417:
.LBE416:
.LBE420:
.LBE421:
	.cfi_endproc
.LFE59:
	.size	SuspendAllInterrupts, .-SuspendAllInterrupts
	.section	.text.ResumeAllInterrupts,"ax",@progbits
.global	ResumeAllInterrupts
	.type	ResumeAllInterrupts, @function
ResumeAllInterrupts:
.LFB60:
	.loc 1 153 0
	.cfi_startproc
/* prologue: function */
/* frame size = 0 */
/* stack size = 0 */
.L__stack_usage = 0
	.loc 1 155 0
	lds r30,osEE_cdb_var
	lds r31,osEE_cdb_var+1
.LVL8:
	.loc 1 161 0
	ldd r24,Z+15
	tst r24
	breq .L13
	.loc 1 162 0
	subi r24,lo8(-(-1))
	std Z+15,r24
	.loc 1 164 0
	cpse r24,__zero_reg__
	rjmp .L13
	.loc 1 165 0
	ldd r24,Z+13
.LVL9:
.LBB422:
.LBB423:
	.loc 2 123 0
	.loc 2 124 0
	out __SREG__,r24
.LVL10:
.L13:
/* epilogue start */
.LBE423:
.LBE422:
	.loc 1 172 0
	ret
	.cfi_endproc
.LFE60:
	.size	ResumeAllInterrupts, .-ResumeAllInterrupts
	.section	.text.SuspendOSInterrupts,"ax",@progbits
.global	SuspendOSInterrupts
	.type	SuspendOSInterrupts, @function
SuspendOSInterrupts:
.LFB61:
	.loc 1 179 0
	.cfi_startproc
/* prologue: function */
/* frame size = 0 */
/* stack size = 0 */
.L__stack_usage = 0
	.loc 1 181 0
	lds r30,osEE_cdb_var
	lds r31,osEE_cdb_var+1
.LVL11:
	.loc 1 187 0
	ldd r24,Z+16
	cpse r24,__zero_reg__
	rjmp .L18
.LBB424:
.LBB425:
.LBB426:
.LBB427:
	.loc 2 116 0
	in r24,__SREG__
.LVL12:
.LBB428:
.LBB429:
	.loc 2 105 0
/* #APP */
 ;  105 "C:\Users\gabri\OneDrive\Desktop\OS4ES_~1\test\erika\src\ee_hal_internal.h" 1
	cli
 ;  0 "" 2
.LVL13:
/* #NOAPP */
.LBE429:
.LBE428:
.LBE427:
.LBE426:
.LBE425:
	.loc 1 189 0
	std Z+14,r24
	.loc 1 190 0
	ldd r24,Z+16
.L22:
.LBE424:
	.loc 1 192 0
	subi r24,lo8(-(1))
	std Z+16,r24
/* epilogue start */
	.loc 1 204 0
	ret
.L18:
	.loc 1 191 0
	cpi r24,lo8(-1)
	brne .L22
.LVL14:
.LBB430:
.LBB431:
	.loc 3 694 0
	ldi r24,lo8(3)
	ldi r25,0
	std Z+9,r25
	std Z+8,r24
	.loc 3 696 0
	ldi r24,lo8(25)
	ldi r25,0
	std Z+12,r25
	std Z+11,r24
.LBB432:
.LBB433:
	.loc 2 105 0
/* #APP */
 ;  105 "C:\Users\gabri\OneDrive\Desktop\OS4ES_~1\test\erika\src\ee_hal_internal.h" 1
	cli
 ;  0 "" 2
/* #NOAPP */
.L21:
	rjmp .L21
.LBE433:
.LBE432:
.LBE431:
.LBE430:
	.cfi_endproc
.LFE61:
	.size	SuspendOSInterrupts, .-SuspendOSInterrupts
	.section	.text.ResumeOSInterrupts,"ax",@progbits
.global	ResumeOSInterrupts
	.type	ResumeOSInterrupts, @function
ResumeOSInterrupts:
.LFB62:
	.loc 1 211 0
	.cfi_startproc
/* prologue: function */
/* frame size = 0 */
/* stack size = 0 */
.L__stack_usage = 0
	.loc 1 213 0
	lds r30,osEE_cdb_var
	lds r31,osEE_cdb_var+1
.LVL15:
	.loc 1 219 0
	ldd r24,Z+16
	tst r24
	breq .L23
	.loc 1 220 0
	subi r24,lo8(-(-1))
	std Z+16,r24
	.loc 1 222 0
	cpse r24,__zero_reg__
	rjmp .L23
	.loc 1 223 0
	ldd r24,Z+14
.LVL16:
.LBB434:
.LBB435:
.LBB436:
	.loc 2 123 0
	.loc 2 124 0
	out __SREG__,r24
.LVL17:
.L23:
/* epilogue start */
.LBE436:
.LBE435:
.LBE434:
	.loc 1 230 0
	ret
	.cfi_endproc
.LFE62:
	.size	ResumeOSInterrupts, .-ResumeOSInterrupts
	.section	.text.StartOS,"ax",@progbits
.global	StartOS
	.type	StartOS, @function
StartOS:
.LFB63:
	.loc 1 237 0
	.cfi_startproc
.LVL18:
	push r4
.LCFI0:
	.cfi_def_cfa_offset 3
	.cfi_offset 4, -2
	push r5
.LCFI1:
	.cfi_def_cfa_offset 4
	.cfi_offset 5, -3
	push r6
.LCFI2:
	.cfi_def_cfa_offset 5
	.cfi_offset 6, -4
	push r7
.LCFI3:
	.cfi_def_cfa_offset 6
	.cfi_offset 7, -5
	push r8
.LCFI4:
	.cfi_def_cfa_offset 7
	.cfi_offset 8, -6
	push r9
.LCFI5:
	.cfi_def_cfa_offset 8
	.cfi_offset 9, -7
	push r10
.LCFI6:
	.cfi_def_cfa_offset 9
	.cfi_offset 10, -8
	push r11
.LCFI7:
	.cfi_def_cfa_offset 10
	.cfi_offset 11, -9
	push r12
.LCFI8:
	.cfi_def_cfa_offset 11
	.cfi_offset 12, -10
	push r13
.LCFI9:
	.cfi_def_cfa_offset 12
	.cfi_offset 13, -11
	push r14
.LCFI10:
	.cfi_def_cfa_offset 13
	.cfi_offset 14, -12
	push r15
.LCFI11:
	.cfi_def_cfa_offset 14
	.cfi_offset 15, -13
	push r16
.LCFI12:
	.cfi_def_cfa_offset 15
	.cfi_offset 16, -14
	push r17
.LCFI13:
	.cfi_def_cfa_offset 16
	.cfi_offset 17, -15
	push r28
.LCFI14:
	.cfi_def_cfa_offset 17
	.cfi_offset 28, -16
	push r29
.LCFI15:
	.cfi_def_cfa_offset 18
	.cfi_offset 29, -17
	rcall .
.LCFI16:
	.cfi_def_cfa_offset 20
	in r28,__SP_L__
	in r29,__SP_H__
.LCFI17:
	.cfi_def_cfa_register 28
/* prologue: function */
/* frame size = 2 */
/* stack size = 18 */
.L__stack_usage = 18
.LVL19:
	.loc 1 246 0
	lds r16,osEE_cdb_var
	lds r17,osEE_cdb_var+1
.LVL20:
.LBB458:
.LBB459:
.LBB460:
.LBB461:
	.loc 2 116 0
	in r25,__SREG__
.LVL21:
.LBB462:
.LBB463:
	.loc 2 105 0
/* #APP */
 ;  105 "C:\Users\gabri\OneDrive\Desktop\OS4ES_~1\test\erika\src\ee_hal_internal.h" 1
	cli
 ;  0 "" 2
.LVL22:
/* #NOAPP */
.LBE463:
.LBE462:
.LBE461:
.LBE460:
.LBE459:
.LBE458:
	.loc 1 254 0
	movw r26,r16
	adiw r26,8
	ld r18,X+
	ld r19,X
	or r18,r19
	breq .L28
.LVL23:
.LBB464:
.LBB465:
.LBB466:
.LBB467:
	.loc 2 123 0
	.loc 2 124 0
	out __SREG__,r25
.LVL24:
.LBE467:
.LBE466:
.LBE465:
.LBE464:
	.loc 1 258 0
	ldi r24,lo8(1)
	ldi r25,0
.LVL25:
.L27:
/* epilogue start */
	.loc 1 582 0
	pop __tmp_reg__
	pop __tmp_reg__
	pop r29
	pop r28
	pop r17
	pop r16
	pop r15
	pop r14
	pop r13
	pop r12
	pop r11
	pop r10
	pop r9
	pop r8
	pop r7
	pop r6
	pop r5
	pop r4
	ret
.LVL26:
.L28:
	mov r15,r24
.LBB468:
.LBB469:
	.loc 2 173 0
	ldi r24,lo8(gs(osEE_atmega_intvect))
	ldi r25,hi8(gs(osEE_atmega_intvect))
.LVL27:
	std Y+2,r25
	std Y+1,r24
.LBE469:
.LBE468:
.LBB470:
	.loc 1 280 0
	lds r12,osEE_cdb_var+4
	lds r13,osEE_cdb_var+4+1
.LVL28:
	.loc 1 300 0
	ldi r24,lo8(1)
	ldi r25,0
	movw r30,r16
	std Z+9,r25
	std Z+8,r24
	.loc 1 301 0
	std Z+10,r15
.LVL29:
.LBB471:
.LBB472:
	.loc 3 331 0
	call StartupHook
.LVL30:
.LBE472:
.LBE471:
.LBB473:
	.loc 1 468 0
	lds r4,osEE_cdb_var+6
	lds r5,osEE_cdb_var+6+1
.LVL31:
	.loc 1 471 0
	movw r10,r16
	ldi r31,2
	add r10,r31
	adc r11,__zero_reg__
.LVL32:
	.loc 1 483 0
	ldi r18,lo8(4)
	mul r15,r18
	movw r24,r0
	clr __zero_reg__
	add r4,r24
	adc r5,r25
	movw r26,r4
	adiw r26,2
	ld r6,X+
	ld r7,X
.LVL33:
	.loc 1 484 0
	mov r15,__zero_reg__
.LVL34:
	mov r14,__zero_reg__
.LBB474:
	.loc 1 492 0
	clr r8
	inc r8
	mov r9,__zero_reg__
.LVL35:
.L30:
.LBE474:
	.loc 1 484 0 discriminator 1
	cp r14,r6
	cpc r15,r7
	brne .L31
.LVL36:
.LBE473:
	.loc 1 527 0
	movw r30,r16
	ldd r24,Z+8
	ldd r25,Z+9
	sbiw r24,1
	brne .L32
	.loc 1 528 0
	ldi r24,lo8(2)
	ldi r25,0
	std Z+9,r25
	std Z+8,r24
.L32:
.LVL37:
	.loc 1 537 0
	movw r26,r16
	adiw r26,8
	ld r24,X+
	ld r25,X
	sbiw r24,2
	brne .L33
.LVL38:
.LBB478:
.LBB479:
	.file 4 "C:\\Users\\gabri\\OneDrive\\Desktop\\OS4ES_~1\\test\\erika\\src\\ee_std_change_context.h"
	.loc 4 150 0
	movw r30,r12
	ldd r22,Z+2
	ldd r23,Z+3
	movw r20,r22
	movw r24,r12
	call osEE_hal_save_ctx_and_ready2stacked
.LVL39:
.LBE479:
.LBE478:
	.loc 1 539 0
	movw r24,r12
	call osEE_task_end
.LVL40:
.L33:
.LBE470:
	.loc 1 238 0
	ldi r25,0
	ldi r24,0
	.loc 1 581 0
	rjmp .L27
.LVL41:
.L31:
.LBB481:
.LBB480:
.LBB477:
	.loc 1 486 0 discriminator 3
	movw r26,r4
	ld r30,X+
	ld r31,X
	movw r24,r14
	lsl r24
	rol r25
	add r30,r24
	adc r31,r25
	ld r20,Z
	ldd r21,Z+1
.LVL42:
	.loc 1 488 0 discriminator 3
	movw r26,r20
	adiw r26,4
	ld r30,X+
	ld r31,X
.LVL43:
	.loc 1 491 0 discriminator 3
	ld r24,Z
	subi r24,lo8(-(1))
	st Z,r24
	.loc 1 492 0 discriminator 3
	std Z+3,r9
	std Z+2,r8
.LVL44:
.LBB475:
.LBB476:
	.file 5 "C:\\Users\\gabri\\OneDrive\\Desktop\\OS4ES_~1\\test\\erika\\inc/ee_scheduler_types.h"
	.loc 5 100 0 discriminator 3
	movw r30,r16
.LVL45:
	ldd r22,Z+4
	ldd r23,Z+5
.LVL46:
	.loc 5 101 0 discriminator 3
	movw r26,r22
	ld r24,X+
	ld r25,X
	sbiw r26,1
	std Z+5,r25
	std Z+4,r24
	.loc 5 102 0 discriminator 3
	st X+,__zero_reg__
	st X,__zero_reg__
.LVL47:
.LBE476:
.LBE475:
	.loc 1 494 0 discriminator 3
	movw r24,r10
	call osEE_scheduler_rq_insert
.LVL48:
.LBE477:
	.loc 1 484 0 discriminator 3
	ldi r27,-1
	sub r14,r27
	sbc r15,r27
.LVL49:
	rjmp .L30
.LBE480:
.LBE481:
	.cfi_endproc
.LFE63:
	.size	StartOS, .-StartOS
	.section	.text.GetActiveApplicationMode,"ax",@progbits
.global	GetActiveApplicationMode
	.type	GetActiveApplicationMode, @function
GetActiveApplicationMode:
.LFB64:
	.loc 1 589 0
	.cfi_startproc
/* prologue: function */
/* frame size = 0 */
/* stack size = 0 */
.L__stack_usage = 0
	.loc 1 598 0
	lds r30,osEE_cdb_var
	lds r31,osEE_cdb_var+1
.LVL50:
	.loc 1 604 0
	ldd r24,Z+8
	ldd r25,Z+9
	or r24,r25
	breq .L36
	.loc 1 605 0
	ldd r24,Z+10
.LVL51:
	ret
.LVL52:
.L36:
	.loc 1 607 0
	ldi r24,lo8(-1)
.LVL53:
/* epilogue start */
	.loc 1 613 0
	ret
	.cfi_endproc
.LFE64:
	.size	GetActiveApplicationMode, .-GetActiveApplicationMode
	.section	.text.ActivateTask,"ax",@progbits
.global	ActivateTask
	.type	ActivateTask, @function
ActivateTask:
.LFB65:
	.loc 1 620 0
	.cfi_startproc
.LVL54:
	push r15
.LCFI18:
	.cfi_def_cfa_offset 3
	.cfi_offset 15, -2
	push r16
.LCFI19:
	.cfi_def_cfa_offset 4
	.cfi_offset 16, -3
	push r17
.LCFI20:
	.cfi_def_cfa_offset 5
	.cfi_offset 17, -4
	push r28
.LCFI21:
	.cfi_def_cfa_offset 6
	.cfi_offset 28, -5
	push r29
.LCFI22:
	.cfi_def_cfa_offset 7
	.cfi_offset 29, -6
/* prologue: function */
/* frame size = 0 */
/* stack size = 5 */
.L__stack_usage = 5
.LVL55:
.LBB482:
.LBB483:
	.loc 3 276 0
	ldi r25,0
.LBE483:
.LBE482:
	.loc 1 655 0
	lds r18,osEE_kdb_var+4
	lds r19,osEE_kdb_var+4+1
	cp r24,r18
	cpc r25,r19
	brsh .L41
.LBB484:
	.loc 1 660 0
	lds r18,osEE_kdb_var+2
	lds r19,osEE_kdb_var+2+1
	lsl r24
	rol r25
.LVL56:
	add r24,r18
	adc r25,r19
	movw r30,r24
	ld r16,Z
	ldd r17,Z+1
.LVL57:
	.loc 1 662 0
	movw r30,r16
	ldd r24,Z+7
	ldd r25,Z+8
	sbiw r24,2
	brsh .L41
.LBB485:
.LBB486:
.LBB487:
.LBB488:
.LBB489:
	.loc 2 116 0
	in r15,__SREG__
.LVL58:
.LBB490:
.LBB491:
	.loc 2 105 0
/* #APP */
 ;  105 "C:\Users\gabri\OneDrive\Desktop\OS4ES_~1\test\erika\src\ee_hal_internal.h" 1
	cli
 ;  0 "" 2
.LVL59:
/* #NOAPP */
.LBE491:
.LBE490:
.LBE489:
.LBE488:
.LBE487:
.LBE486:
	.loc 1 665 0
	movw r24,r16
	call osEE_task_activated
.LVL60:
	movw r28,r24
.LVL61:
	.loc 1 667 0
	or r24,r25
	brne .L39
	.loc 1 668 0
	movw r22,r16
	ldi r24,lo8(osEE_kdb_var)
	ldi r25,hi8(osEE_kdb_var)
.LVL62:
	call osEE_scheduler_task_activated
.LVL63:
.L39:
.LBB492:
.LBB493:
.LBB494:
.LBB495:
	.loc 2 123 0
	.loc 2 124 0
	out __SREG__,r15
.LVL64:
.L37:
.LBE495:
.LBE494:
.LBE493:
.LBE492:
.LBE485:
.LBE484:
	.loc 1 692 0
	movw r24,r28
/* epilogue start */
	pop r29
	pop r28
	pop r17
	pop r16
	pop r15
	ret
.L41:
	.loc 1 656 0
	ldi r28,lo8(3)
	ldi r29,0
.LVL65:
	.loc 1 691 0
	rjmp .L37
	.cfi_endproc
.LFE65:
	.size	ActivateTask, .-ActivateTask
	.section	.text.ChainTask,"ax",@progbits
.global	ChainTask
	.type	ChainTask, @function
ChainTask:
.LFB66:
	.loc 1 699 0
	.cfi_startproc
.LVL66:
	push r15
.LCFI23:
	.cfi_def_cfa_offset 3
	.cfi_offset 15, -2
	push r16
.LCFI24:
	.cfi_def_cfa_offset 4
	.cfi_offset 16, -3
	push r17
.LCFI25:
	.cfi_def_cfa_offset 5
	.cfi_offset 17, -4
	push r28
.LCFI26:
	.cfi_def_cfa_offset 6
	.cfi_offset 28, -5
	push r29
.LCFI27:
	.cfi_def_cfa_offset 7
	.cfi_offset 29, -6
/* prologue: function */
/* frame size = 0 */
/* stack size = 5 */
.L__stack_usage = 5
.LVL67:
.LBB496:
.LBB497:
	.loc 3 276 0
	ldi r25,0
.LBE497:
.LBE496:
	.loc 1 745 0
	lds r18,osEE_kdb_var+4
	lds r19,osEE_kdb_var+4+1
	cp r24,r18
	cpc r25,r19
	brlo .+2
	rjmp .L50
.LBB498:
	.loc 1 749 0
	lds r18,osEE_kdb_var+2
	lds r19,osEE_kdb_var+2+1
	lsl r24
	rol r25
.LVL68:
	add r24,r18
	adc r25,r19
	movw r30,r24
	ld r16,Z
	ldd r17,Z+1
.LVL69:
	.loc 1 771 0
	movw r30,r16
	ldd r24,Z+7
	ldd r25,Z+8
	sbiw r24,2
	brsh .L50
.LBE498:
	.loc 1 711 0
	lds r28,osEE_cdb_var
	lds r29,osEE_cdb_var+1
	.loc 1 713 0
	ld r30,Y
	ldd r31,Y+1
.LBB517:
.LBB499:
	.loc 1 775 0
	ldd r24,Y+15
	tst r24
	breq .L44
	.loc 1 776 0
	std Y+15,__zero_reg__
.LVL70:
	.loc 1 777 0
	ldd r24,Y+13
.LVL71:
.LBB500:
.LBB501:
	.loc 2 123 0
	.loc 2 124 0
	out __SREG__,r24
.LVL72:
.L44:
.LBE501:
.LBE500:
	.loc 1 779 0
	ldd r24,Y+17
	tst r24
	breq .L45
	.loc 1 780 0
	std Y+17,__zero_reg__
.LBB502:
.LBB503:
	.loc 2 110 0
/* #APP */
 ;  110 "C:\Users\gabri\OneDrive\Desktop\OS4ES_~1\test\erika\src\ee_hal_internal.h" 1
	sei
 ;  0 "" 2
/* #NOAPP */
.L45:
.LBE503:
.LBE502:
.LBB504:
.LBB505:
.LBB506:
.LBB507:
	.loc 2 116 0
	in r15,__SREG__
.LVL73:
.LBB508:
.LBB509:
	.loc 2 105 0
/* #APP */
 ;  105 "C:\Users\gabri\OneDrive\Desktop\OS4ES_~1\test\erika\src\ee_hal_internal.h" 1
	cli
 ;  0 "" 2
.LVL74:
/* #NOAPP */
.LBE509:
.LBE508:
.LBE507:
.LBE506:
.LBE505:
.LBE504:
	.loc 1 787 0
	cp r30,r16
	cpc r31,r17
	brne .L46
	.loc 1 789 0
	ldd __tmp_reg__,Z+4
	ldd r31,Z+5
	mov r30,__tmp_reg__
	ldi r24,lo8(5)
	ldi r25,0
	std Z+3,r25
	std Z+2,r24
.LVL75:
.L47:
.LBB510:
.LBB511:
	.loc 4 141 0
	ld r30,Y
	ldd r31,Y+1
	ldi r22,lo8(gs(osEE_scheduler_task_end))
	ldi r23,hi8(gs(osEE_scheduler_task_end))
	ldd r24,Z+2
	ldd r25,Z+3
	call osEE_hal_terminate_ctx
.LVL76:
.L46:
.LBE511:
.LBE510:
	.loc 1 792 0
	movw r24,r16
	call osEE_task_activated
.LVL77:
	.loc 1 793 0
	sbiw r24,0
	brne .L48
	.loc 1 794 0
	movw r22,r16
	ldi r24,lo8(osEE_kdb_var)
	ldi r25,hi8(osEE_kdb_var)
.LVL78:
	call osEE_scheduler_task_insert
.LVL79:
	rjmp .L47
.LVL80:
.L50:
.LBE499:
.LBE517:
	.loc 1 746 0
	ldi r24,lo8(3)
	ldi r25,0
.LVL81:
.L42:
/* epilogue start */
	.loc 1 822 0
	pop r29
	pop r28
	pop r17
	pop r16
	pop r15
	ret
.LVL82:
.L48:
.LBB518:
.LBB516:
.LBB512:
.LBB513:
.LBB514:
.LBB515:
	.loc 2 123 0
	.loc 2 124 0
	out __SREG__,r15
.LVL83:
	rjmp .L42
.LBE515:
.LBE514:
.LBE513:
.LBE512:
.LBE516:
.LBE518:
	.cfi_endproc
.LFE66:
	.size	ChainTask, .-ChainTask
	.section	.text.TerminateTask,"ax",@progbits
.global	TerminateTask
	.type	TerminateTask, @function
TerminateTask:
.LFB67:
	.loc 1 829 0
	.cfi_startproc
/* prologue: function */
/* frame size = 0 */
/* stack size = 0 */
.L__stack_usage = 0
	.loc 1 840 0
	lds r30,osEE_cdb_var
	lds r31,osEE_cdb_var+1
.LVL84:
	.loc 1 842 0
	ld r26,Z
	ldd r27,Z+1
.LVL85:
.LBB519:
	.loc 1 902 0
	ldd r24,Z+15
	tst r24
	breq .L58
	.loc 1 903 0
	std Z+15,__zero_reg__
	.loc 1 904 0
	ldd r24,Z+13
.LVL86:
.LBB520:
.LBB521:
	.loc 2 123 0
	.loc 2 124 0
	out __SREG__,r24
.LVL87:
.L58:
.LBE521:
.LBE520:
	.loc 1 906 0
	ldd r24,Z+17
	tst r24
	breq .L59
	.loc 1 907 0
	std Z+17,__zero_reg__
.LBB522:
.LBB523:
	.loc 2 110 0
/* #APP */
 ;  110 "C:\Users\gabri\OneDrive\Desktop\OS4ES_~1\test\erika\src\ee_hal_internal.h" 1
	sei
 ;  0 "" 2
/* #NOAPP */
.L59:
.LBE523:
.LBE522:
.LBB524:
.LBB525:
.LBB526:
.LBB527:
	.loc 2 116 0
	in r24,__SREG__
.LBB528:
.LBB529:
	.loc 2 105 0
/* #APP */
 ;  105 "C:\Users\gabri\OneDrive\Desktop\OS4ES_~1\test\erika\src\ee_hal_internal.h" 1
	cli
 ;  0 "" 2
.LVL88:
/* #NOAPP */
.LBE529:
.LBE528:
.LBE527:
.LBE526:
.LBE525:
.LBE524:
.LBB530:
.LBB531:
	.loc 4 141 0
	ldi r22,lo8(gs(osEE_scheduler_task_end))
	ldi r23,hi8(gs(osEE_scheduler_task_end))
	adiw r26,2
	ld r24,X+
	ld r25,X
	call osEE_hal_terminate_ctx
.LVL89:
.LBE531:
.LBE530:
.LBE519:
	.cfi_endproc
.LFE67:
	.size	TerminateTask, .-TerminateTask
	.section	.text.Schedule,"ax",@progbits
.global	Schedule
	.type	Schedule, @function
Schedule:
.LFB68:
	.loc 1 944 0
	.cfi_startproc
	push r15
.LCFI28:
	.cfi_def_cfa_offset 3
	.cfi_offset 15, -2
	push r16
.LCFI29:
	.cfi_def_cfa_offset 4
	.cfi_offset 16, -3
	push r17
.LCFI30:
	.cfi_def_cfa_offset 5
	.cfi_offset 17, -4
	push r28
.LCFI31:
	.cfi_def_cfa_offset 6
	.cfi_offset 28, -5
	push r29
.LCFI32:
	.cfi_def_cfa_offset 7
	.cfi_offset 29, -6
/* prologue: function */
/* frame size = 0 */
/* stack size = 5 */
.L__stack_usage = 5
.LVL90:
	.loc 1 953 0
	lds r30,osEE_cdb_var
	lds r31,osEE_cdb_var+1
	ld r28,Z
	ldd r29,Z+1
.LVL91:
	.loc 1 954 0
	ldd r16,Y+4
	ldd r17,Y+5
.LVL92:
	.loc 1 1003 0
	movw r30,r16
	ldd r25,Z+1
	ldd r24,Y+12
	cpse r25,r24
	rjmp .L67
.LBB532:
.LBB533:
.LBB534:
.LBB535:
.LBB536:
	.loc 2 116 0
	in r15,__SREG__
.LVL93:
.LBB537:
.LBB538:
	.loc 2 105 0
/* #APP */
 ;  105 "C:\Users\gabri\OneDrive\Desktop\OS4ES_~1\test\erika\src\ee_hal_internal.h" 1
	cli
 ;  0 "" 2
.LVL94:
/* #NOAPP */
.LBE538:
.LBE537:
.LBE536:
.LBE535:
.LBE534:
.LBE533:
	.loc 1 1009 0
	ldd r24,Y+11
	std Z+1,r24
	.loc 1 1011 0
	ldi r24,lo8(osEE_kdb_var)
	ldi r25,hi8(osEE_kdb_var)
	call osEE_scheduler_task_preemption_point
.LVL95:
	.loc 1 1013 0
	ldd r24,Y+12
	movw r30,r16
	std Z+1,r24
.LBB539:
.LBB540:
.LBB541:
.LBB542:
	.loc 2 123 0
	.loc 2 124 0
	out __SREG__,r15
.LVL96:
.L67:
.LBE542:
.LBE541:
.LBE540:
.LBE539:
.LBE532:
	.loc 1 1037 0
	ldi r25,0
	ldi r24,0
/* epilogue start */
	pop r29
	pop r28
.LVL97:
	pop r17
	pop r16
.LVL98:
	pop r15
	ret
	.cfi_endproc
.LFE68:
	.size	Schedule, .-Schedule
	.section	.text.ShutdownOS,"ax",@progbits
.global	ShutdownOS
	.type	ShutdownOS, @function
ShutdownOS:
.LFB69:
	.loc 1 1267 0
	.cfi_startproc
.LVL99:
/* prologue: function */
/* frame size = 0 */
/* stack size = 0 */
.L__stack_usage = 0
	movw r20,r24
	.loc 1 1275 0
	lds r30,osEE_cdb_var
	lds r31,osEE_cdb_var+1
.LVL100:
.LBB543:
.LBB544:
.LBB545:
.LBB546:
	.loc 2 116 0
	in r25,__SREG__
.LVL101:
.LBB547:
.LBB548:
	.loc 2 105 0
/* #APP */
 ;  105 "C:\Users\gabri\OneDrive\Desktop\OS4ES_~1\test\erika\src\ee_hal_internal.h" 1
	cli
 ;  0 "" 2
.LVL102:
/* #NOAPP */
.LBE548:
.LBE547:
.LBE546:
.LBE545:
.LBE544:
.LBE543:
	.loc 1 1277 0
	ldd r18,Z+8
	ldd r19,Z+9
.LVL103:
	.loc 1 1305 0
	subi r18,1
	sbc r19,__zero_reg__
.LVL104:
	cpi r18,2
	cpc r19,__zero_reg__
	brsh .L69
.LVL105:
.LBB549:
.LBB550:
	.loc 3 694 0
	ldi r24,lo8(3)
	ldi r25,0
.LVL106:
	std Z+9,r25
	std Z+8,r24
	.loc 3 696 0
	std Z+12,r21
	std Z+11,r20
.LBB551:
.LBB552:
	.loc 2 105 0
/* #APP */
 ;  105 "C:\Users\gabri\OneDrive\Desktop\OS4ES_~1\test\erika\src\ee_hal_internal.h" 1
	cli
 ;  0 "" 2
/* #NOAPP */
.L70:
	rjmp .L70
.LVL107:
.L69:
.LBE552:
.LBE551:
.LBE550:
.LBE549:
.LBB553:
.LBB554:
.LBB555:
.LBB556:
	.loc 2 123 0
	.loc 2 124 0
	out __SREG__,r25
.LVL108:
.LBE556:
.LBE555:
.LBE554:
.LBE553:
	.loc 1 1327 0
	ldi r24,lo8(7)
	ldi r25,0
/* epilogue start */
	ret
	.cfi_endproc
.LFE69:
	.size	ShutdownOS, .-ShutdownOS
	.section	.text.GetTaskID,"ax",@progbits
.global	GetTaskID
	.type	GetTaskID, @function
GetTaskID:
.LFB70:
	.loc 1 1334 0
	.cfi_startproc
.LVL109:
	push r28
.LCFI33:
	.cfi_def_cfa_offset 3
	.cfi_offset 28, -2
	push r29
.LCFI34:
	.cfi_def_cfa_offset 4
	.cfi_offset 29, -3
/* prologue: function */
/* frame size = 0 */
/* stack size = 2 */
.L__stack_usage = 2
	movw r26,r24
	.loc 1 1343 0
	lds r30,osEE_cdb_var
	lds r31,osEE_cdb_var+1
.LVL110:
	.loc 1 1374 0
	ldi r24,lo8(14)
	ldi r25,0
.LVL111:
	.loc 1 1373 0
	sbiw r26,0
	breq .L71
.LVL112:
.LBB557:
	.loc 1 1379 0
	ld r28,Z
	ldd r29,Z+1
.LVL113:
	.loc 1 1389 0
	ldd r24,Y+7
	ldd r25,Y+8
	cpi r24,2
	cpc r25,__zero_reg__
	brsh .L73
.LVL114:
.L80:
.LBB558:
.LBB559:
	.loc 1 1402 0
	ldd r25,Y+6
.LVL115:
.L74:
.LBE559:
.LBE558:
	.loc 1 1413 0
	st X,r25
.LVL116:
	.loc 1 1414 0
	ldi r25,0
.LVL117:
	ldi r24,0
.LVL118:
.L71:
/* epilogue start */
.LBE557:
	.loc 1 1431 0
	pop r29
	pop r28
	ret
.LVL119:
.L73:
.LBB564:
	.loc 1 1392 0
	sbiw r24,2
	brne .L79
.LBB562:
	.loc 1 1396 0
	ldd __tmp_reg__,Z+6
	ldd r31,Z+7
	mov r30,__tmp_reg__
.LVL120:
.L76:
.LBB560:
	.loc 1 1405 0
	ld __tmp_reg__,Z+
	ld r31,Z
	mov r30,__tmp_reg__
.LVL121:
.LBE560:
	.loc 1 1398 0
	sbiw r30,0
	brne .L77
.LVL122:
.L79:
.LBE562:
	.loc 1 1377 0
	ldi r25,lo8(-1)
	rjmp .L74
.LVL123:
.L77:
.LBB563:
.LBB561:
	.loc 1 1400 0
	ldd r28,Z+2
	ldd r29,Z+3
.LVL124:
	.loc 1 1401 0
	ldd r24,Y+7
	ldd r25,Y+8
	sbiw r24,2
	brsh .L76
	rjmp .L80
.LBE561:
.LBE563:
.LBE564:
	.cfi_endproc
.LFE70:
	.size	GetTaskID, .-GetTaskID
	.section	.text.GetTaskState,"ax",@progbits
.global	GetTaskState
	.type	GetTaskState, @function
GetTaskState:
.LFB71:
	.loc 1 1439 0
	.cfi_startproc
.LVL125:
	push r28
.LCFI35:
	.cfi_def_cfa_offset 3
	.cfi_offset 28, -2
	push r29
.LCFI36:
	.cfi_def_cfa_offset 4
	.cfi_offset 29, -3
/* prologue: function */
/* frame size = 0 */
/* stack size = 2 */
.L__stack_usage = 2
	movw r30,r22
.LVL126:
	.loc 1 1479 0
	sbiw r30,0
	breq .L88
.LVL127:
.LBB565:
.LBB566:
	.loc 3 276 0
	ldi r25,0
.LBE566:
.LBE565:
	.loc 1 1482 0
	lds r18,osEE_kdb_var+4
	lds r19,osEE_kdb_var+4+1
	cp r24,r18
	cpc r25,r19
	brsh .L89
.LVL128:
.LBB567:
	.loc 1 1487 0
	lds r18,osEE_kdb_var+2
	lds r19,osEE_kdb_var+2+1
	lsl r24
	rol r25
.LVL129:
	add r24,r18
	adc r25,r19
	.loc 1 1490 0
	movw r28,r24
	ld r26,Y
	ldd r27,Y+1
	adiw r26,4
	ld __tmp_reg__,X+
	ld r27,X
	mov r26,__tmp_reg__
	.loc 1 1491 0
	adiw r26,2
	ld r24,X+
	ld r25,X
	cpi r24,3
	cpc r25,__zero_reg__
	brsh .L83
	sbiw r24,1
	brlo .L91
	.loc 1 1497 0
	ldi r24,lo8(1)
	ldi r25,0
.L93:
	.loc 1 1504 0
	std Z+1,r25
	st Z,r24
	rjmp .L90
.L83:
	.loc 1 1491 0
	cpi r24,3
	cpc r25,__zero_reg__
	breq .L93
	sbiw r24,6
	brlo .L92
.L90:
	.loc 1 1511 0
	ldi r25,0
	ldi r24,0
.LVL130:
.LBE567:
	.loc 1 1528 0
	rjmp .L81
.LVL131:
.L91:
.LBB568:
	.loc 1 1493 0
	std Z+1,__zero_reg__
	st Z,__zero_reg__
	rjmp .L90
.L92:
	.loc 1 1504 0
	ldi r24,lo8(4)
	ldi r25,0
	rjmp .L93
.LVL132:
.L88:
.LBE568:
	.loc 1 1480 0
	ldi r24,lo8(14)
	ldi r25,0
.LVL133:
.L81:
/* epilogue start */
	.loc 1 1529 0
	pop r29
	pop r28
	ret
.LVL134:
.L89:
	.loc 1 1483 0
	ldi r24,lo8(3)
	ldi r25,0
.LVL135:
	rjmp .L81
	.cfi_endproc
.LFE71:
	.size	GetTaskState, .-GetTaskState
	.section	.text.WaitEvent,"ax",@progbits
.global	WaitEvent
	.type	WaitEvent, @function
WaitEvent:
.LFB72:
	.loc 1 1945 0
	.cfi_startproc
.LVL136:
	push r13
.LCFI37:
	.cfi_def_cfa_offset 3
	.cfi_offset 13, -2
	push r14
.LCFI38:
	.cfi_def_cfa_offset 4
	.cfi_offset 14, -3
	push r15
.LCFI39:
	.cfi_def_cfa_offset 5
	.cfi_offset 15, -4
	push r16
.LCFI40:
	.cfi_def_cfa_offset 6
	.cfi_offset 16, -5
	push r17
.LCFI41:
	.cfi_def_cfa_offset 7
	.cfi_offset 17, -6
	push r28
.LCFI42:
	.cfi_def_cfa_offset 8
	.cfi_offset 28, -7
	push r29
.LCFI43:
	.cfi_def_cfa_offset 9
	.cfi_offset 29, -8
/* prologue: function */
/* frame size = 0 */
/* stack size = 7 */
.L__stack_usage = 7
	.loc 1 1950 0
	lds r16,osEE_cdb_var
	lds r17,osEE_cdb_var+1
.LVL137:
	.loc 1 1952 0
	movw r30,r16
	ld r14,Z
	ldd r15,Z+1
.LVL138:
	.loc 1 1954 0
	movw r30,r14
	ldd r28,Z+4
	ldd r29,Z+5
.LVL139:
.LBB569:
.LBB570:
.LBB571:
.LBB572:
.LBB573:
	.loc 2 116 0
	in r13,__SREG__
.LVL140:
.LBB574:
.LBB575:
	.loc 2 105 0
/* #APP */
 ;  105 "C:\Users\gabri\OneDrive\Desktop\OS4ES_~1\test\erika\src\ee_hal_internal.h" 1
	cli
 ;  0 "" 2
.LVL141:
/* #NOAPP */
.LBE575:
.LBE574:
.LBE573:
.LBE572:
.LBE571:
.LBE570:
	.loc 1 2008 0
	ldd r18,Y+6
	ldd r19,Y+7
	and r18,r24
	and r19,r25
	or r18,r19
	brne .L95
	.loc 1 2010 0
	std Y+5,r25
	std Y+4,r24
	.loc 1 2013 0
	movw r22,r16
	subi r22,-2
	sbci r23,-1
	ldi r24,lo8(osEE_cdb_var)
	ldi r25,hi8(osEE_cdb_var)
.LVL142:
	call osEE_scheduler_core_pop_running
.LVL143:
	.loc 1 2012 0
	std Y+9,r25
	std Y+8,r24
	.loc 1 2015 0
	ldi r24,lo8(3)
	ldi r25,0
	std Y+3,r25
	std Y+2,r24
.LVL144:
	.loc 1 2019 0
	movw r30,r16
	ld r22,Z
	ldd r23,Z+1
	movw r24,r14
	call osEE_change_context_from_running
.LVL145:
	.loc 1 2022 0
	std Y+5,__zero_reg__
	std Y+4,__zero_reg__
.LVL146:
.L95:
.LBB576:
.LBB577:
.LBB578:
.LBB579:
	.loc 2 123 0
	.loc 2 124 0
	out __SREG__,r13
.LVL147:
.LBE579:
.LBE578:
.LBE577:
.LBE576:
.LBE569:
	.loc 1 2047 0
	ldi r25,0
	ldi r24,0
/* epilogue start */
	pop r29
	pop r28
.LVL148:
	pop r17
	pop r16
	pop r15
	pop r14
.LVL149:
	pop r13
	ret
	.cfi_endproc
.LFE72:
	.size	WaitEvent, .-WaitEvent
	.section	.text.SetEvent,"ax",@progbits
.global	SetEvent
	.type	SetEvent, @function
SetEvent:
.LFB73:
	.loc 1 2055 0
	.cfi_startproc
.LVL150:
	push r17
.LCFI44:
	.cfi_def_cfa_offset 3
	.cfi_offset 17, -2
	push r28
.LCFI45:
	.cfi_def_cfa_offset 4
	.cfi_offset 28, -3
	push r29
.LCFI46:
	.cfi_def_cfa_offset 5
	.cfi_offset 29, -4
	rcall .
.LCFI47:
	.cfi_def_cfa_offset 7
	in r28,__SP_L__
	in r29,__SP_H__
.LCFI48:
	.cfi_def_cfa_register 28
/* prologue: function */
/* frame size = 2 */
/* stack size = 5 */
.L__stack_usage = 5
.LVL151:
.LBB580:
.LBB581:
	.loc 3 276 0
	ldi r25,0
.LBE581:
.LBE580:
	.loc 1 2103 0
	lds r18,osEE_kdb_var+4
	lds r19,osEE_kdb_var+4+1
	cp r24,r18
	cpc r25,r19
	brlo .L97
	.loc 1 2104 0
	ldi r24,lo8(3)
	ldi r25,0
.LVL152:
	std Y+2,r25
	std Y+1,r24
.LVL153:
.L98:
	.loc 1 2141 0
	ldd r24,Y+1
	ldd r25,Y+2
/* epilogue start */
	pop __tmp_reg__
	pop __tmp_reg__
	pop r29
	pop r28
	pop r17
	ret
.LVL154:
.L97:
.LBB582:
	.loc 1 2109 0
	lds r18,osEE_kdb_var+2
	lds r19,osEE_kdb_var+2+1
	lsl r24
	rol r25
.LVL155:
	add r24,r18
	adc r25,r19
	movw r30,r24
	ld r24,Z
	ldd r25,Z+1
.LVL156:
.LBB583:
.LBB584:
.LBB585:
.LBB586:
	.loc 2 116 0
	in r17,__SREG__
.LVL157:
.LBB587:
.LBB588:
	.loc 2 105 0
/* #APP */
 ;  105 "C:\Users\gabri\OneDrive\Desktop\OS4ES_~1\test\erika\src\ee_hal_internal.h" 1
	cli
 ;  0 "" 2
.LVL158:
/* #NOAPP */
.LBE588:
.LBE587:
.LBE586:
.LBE585:
.LBE584:
.LBE583:
	.loc 1 2113 0
	movw r20,r28
	subi r20,-1
	sbci r21,-1
	call osEE_task_event_set_mask
.LVL159:
	.loc 1 2115 0
	sbiw r24,0
	breq .L100
	.loc 1 2117 0
	movw r22,r24
	ldi r24,lo8(osEE_kdb_var)
	ldi r25,hi8(osEE_kdb_var)
.LVL160:
	call osEE_scheduler_task_unblocked
.LVL161:
	or r24,r25
	breq .L100
	.loc 1 2119 0
	ldi r24,lo8(osEE_kdb_var)
	ldi r25,hi8(osEE_kdb_var)
	call osEE_scheduler_task_preemption_point
.LVL162:
.L100:
.LBB589:
.LBB590:
.LBB591:
.LBB592:
	.loc 2 123 0
	.loc 2 124 0
	out __SREG__,r17
.LVL163:
	rjmp .L98
.LBE592:
.LBE591:
.LBE590:
.LBE589:
.LBE582:
	.cfi_endproc
.LFE73:
	.size	SetEvent, .-SetEvent
	.section	.text.GetEvent,"ax",@progbits
.global	GetEvent
	.type	GetEvent, @function
GetEvent:
.LFB74:
	.loc 1 2149 0
	.cfi_startproc
.LVL164:
/* prologue: function */
/* frame size = 0 */
/* stack size = 0 */
.L__stack_usage = 0
.LBB593:
.LBB594:
	.loc 3 276 0
	ldi r25,0
.LBE594:
.LBE593:
	.loc 1 2202 0
	lds r18,osEE_kdb_var+4
	lds r19,osEE_kdb_var+4+1
	cp r24,r18
	cpc r25,r19
	brsh .L107
.LBB595:
	.loc 1 2207 0
	lds r18,osEE_kdb_var+2
	lds r19,osEE_kdb_var+2+1
	lsl r24
	rol r25
.LVL165:
	add r24,r18
	adc r25,r19
	.loc 1 2209 0
	movw r26,r24
	ld r30,X+
	ld r31,X
	ldd __tmp_reg__,Z+4
	ldd r31,Z+5
	mov r30,__tmp_reg__
.LVL166:
	.loc 1 2220 0
	cp r22,__zero_reg__
	cpc r23,__zero_reg__
	breq .L108
	.loc 1 2225 0
	ldd r24,Z+6
	ldd r25,Z+7
	movw r30,r22
.LVL167:
	std Z+1,r25
	st Z,r24
.LVL168:
	.loc 1 2227 0
	ldi r25,0
	ldi r24,0
	ret
.LVL169:
.L107:
.LBE595:
	.loc 1 2203 0
	ldi r24,lo8(3)
	ldi r25,0
.LVL170:
	ret
.LVL171:
.L108:
.LBB596:
	.loc 1 2221 0
	ldi r24,lo8(14)
	ldi r25,0
.LVL172:
/* epilogue start */
.LBE596:
	.loc 1 2247 0
	ret
	.cfi_endproc
.LFE74:
	.size	GetEvent, .-GetEvent
	.section	.text.ClearEvent,"ax",@progbits
.global	ClearEvent
	.type	ClearEvent, @function
ClearEvent:
.LFB75:
	.loc 1 2254 0
	.cfi_startproc
.LVL173:
/* prologue: function */
/* frame size = 0 */
/* stack size = 0 */
.L__stack_usage = 0
	.loc 1 2265 0
	lds r30,osEE_cdb_var
	lds r31,osEE_cdb_var+1
	.loc 1 2267 0
	ld __tmp_reg__,Z+
	ld r31,Z
	mov r30,__tmp_reg__
	ldd __tmp_reg__,Z+4
	ldd r31,Z+5
	mov r30,__tmp_reg__
.LVL174:
.LBB597:
.LBB598:
.LBB599:
.LBB600:
.LBB601:
	.loc 2 116 0
	in r20,__SREG__
.LVL175:
.LBB602:
.LBB603:
	.loc 2 105 0
/* #APP */
 ;  105 "C:\Users\gabri\OneDrive\Desktop\OS4ES_~1\test\erika\src\ee_hal_internal.h" 1
	cli
 ;  0 "" 2
.LVL176:
/* #NOAPP */
.LBE603:
.LBE602:
.LBE601:
.LBE600:
.LBE599:
.LBE598:
	.loc 1 2305 0
	movw r18,r24
	com r18
	com r19
	ldd r24,Z+6
	ldd r25,Z+7
.LVL177:
	and r24,r18
	and r25,r19
	std Z+7,r25
	std Z+6,r24
.LVL178:
.LBB604:
.LBB605:
.LBB606:
.LBB607:
	.loc 2 123 0
	.loc 2 124 0
	out __SREG__,r20
.LVL179:
.LBE607:
.LBE606:
.LBE605:
.LBE604:
.LBE597:
	.loc 1 2326 0
	ldi r25,0
	ldi r24,0
/* epilogue start */
	ret
	.cfi_endproc
.LFE75:
	.size	ClearEvent, .-ClearEvent
	.section	.text.GetISRID,"ax",@progbits
.global	GetISRID
	.type	GetISRID, @function
GetISRID:
.LFB76:
	.loc 1 3316 0
	.cfi_startproc
/* prologue: function */
/* frame size = 0 */
/* stack size = 0 */
.L__stack_usage = 0
.LBB608:
.LBB609:
	.loc 3 172 0
	lds r30,osEE_cdb_var
	lds r31,osEE_cdb_var+1
	ld __tmp_reg__,Z+
	ld r31,Z
	mov r30,__tmp_reg__
.LBE609:
.LBE608:
	.loc 1 3321 0
	ldd r24,Z+7
	ldd r25,Z+8
	sbiw r24,2
	brne .L112
	.loc 1 3322 0
	ldd r24,Z+6
.LVL180:
	ret
.LVL181:
.L112:
	.loc 1 3324 0
	ldi r24,lo8(-1)
.LVL182:
/* epilogue start */
	.loc 1 3328 0
	ret
	.cfi_endproc
.LFE76:
	.size	GetISRID, .-GetISRID
	.text
.Letext0:
	.file 6 "d:\\downloads\\arduino-pr-beta1.9-build-119\\hardware\\tools\\avr\\avr\\include\\stdint.h"
	.file 7 "C:\\Users\\gabri\\OneDrive\\Desktop\\OS4ES_~1\\test\\erika\\inc/ee_platform_types.h"
	.file 8 "C:\\Users\\gabri\\OneDrive\\Desktop\\OS4ES_~1\\test\\erika\\inc/ee_api_types.h"
	.file 9 "C:\\Users\\gabri\\OneDrive\\Desktop\\OS4ES_~1\\test\\erika\\inc/ee_kernel_types.h"
	.file 10 "C:\\Users\\gabri\\OneDrive\\Desktop\\OS4ES_~1\\test\\erika\\inc/ee_hal_internal_types.h"
	.file 11 "C:\\Users\\gabri\\OneDrive\\Desktop\\OS4ES_~1\\test\\erika\\inc/ee_get_kernel_and_core.h"
	.file 12 "C:\\Users\\gabri\\OneDrive\\Desktop\\OS4ES_~1\\test\\erika\\src\\ee_scheduler.h"
	.file 13 "C:\\Users\\gabri\\OneDrive\\Desktop\\OS4ES_~1\\test\\erika\\inc/ee_oo_api_osek.h"