	.file	"Print.cpp"
__SP_H__ = 0x3e
__SP_L__ = 0x3d
__SREG__ = 0x3f
__tmp_reg__ = 0
__zero_reg__ = 1
	.text
.Ltext0:
	.cfi_sections	.debug_frame
	.section	.text._ZN5Print17availableForWriteEv,"axG",@progbits,_ZN5Print17availableForWriteEv,comdat
	.weak	_ZN5Print17availableForWriteEv
	.type	_ZN5Print17availableForWriteEv, @function
_ZN5Print17availableForWriteEv:
.LFB87:
	.file 1 "D:\\Downloads\\arduino-PR-beta1.9-BUILD-119\\hardware\\arduino\\avr\\cores\\arduino\\Print.h"
	.loc 1 63 0
	.cfi_startproc
.LVL0:
/* prologue: function */
/* frame size = 0 */
/* stack size = 0 */
.L__stack_usage = 0
	.loc 1 63 0
	ldi r25,0
	ldi r24,0
.LVL1:
/* epilogue start */
	ret
	.cfi_endproc
.LFE87:
	.size	_ZN5Print17availableForWriteEv, .-_ZN5Print17availableForWriteEv
	.section	.text._ZN5Print5flushEv,"axG",@progbits,_ZN5Print5flushEv,comdat
	.weak	_ZN5Print5flushEv
	.type	_ZN5Print5flushEv, @function
_ZN5Print5flushEv:
.LFB88:
	.loc 1 90 0
	.cfi_startproc
.LVL2:
/* prologue: function */
/* frame size = 0 */
/* stack size = 0 */
.L__stack_usage = 0
/* epilogue start */
	.loc 1 90 0
	ret
	.cfi_endproc
.LFE88:
	.size	_ZN5Print5flushEv, .-_ZN5Print5flushEv
	.section	.text._ZN5Print5writeEPKhj,"ax",@progbits
.global	_ZN5Print5writeEPKhj
	.type	_ZN5Print5writeEPKhj, @function
_ZN5Print5writeEPKhj:
.LFB112:
	.file 2 "D:\\Downloads\\arduino-PR-beta1.9-BUILD-119\\hardware\\arduino\\avr\\cores\\arduino\\Print.cpp"
	.loc 2 35 0
	.cfi_startproc
.LVL3:
	push r10
.LCFI0:
	.cfi_def_cfa_offset 3
	.cfi_offset 10, -2
	push r11
.LCFI1:
	.cfi_def_cfa_offset 4
	.cfi_offset 11, -3
	push r12
.LCFI2:
	.cfi_def_cfa_offset 5
	.cfi_offset 12, -4
	push r13
.LCFI3:
	.cfi_def_cfa_offset 6
	.cfi_offset 13, -5
	push r14
.LCFI4:
	.cfi_def_cfa_offset 7
	.cfi_offset 14, -6
	push r15
.LCFI5:
	.cfi_def_cfa_offset 8
	.cfi_offset 15, -7
	push r16
.LCFI6:
	.cfi_def_cfa_offset 9
	.cfi_offset 16, -8
	push r17
.LCFI7:
	.cfi_def_cfa_offset 10
	.cfi_offset 17, -9
	push r28
.LCFI8:
	.cfi_def_cfa_offset 11
	.cfi_offset 28, -10
	push r29
.LCFI9:
	.cfi_def_cfa_offset 12
	.cfi_offset 29, -11
/* prologue: function */
/* frame size = 0 */
/* stack size = 10 */
.L__stack_usage = 10
	movw r12,r24
	movw r14,r22
.LVL4:
	movw r16,r22
	add r16,r20
	adc r17,r21
	.loc 2 35 0
	movw r28,r22
.LVL5:
.L5:
	movw r10,r28
	sub r10,r14
	sbc r11,r15
.LVL6:
	.loc 2 37 0
	cp r28,r16
	cpc r29,r17
	breq .L3
.LVL7:
	.loc 2 38 0
	ld r22,Y+
.LVL8:
	movw r26,r12
	ld r30,X+
	ld r31,X
	ld __tmp_reg__,Z+
	ld r31,Z
	mov r30,__tmp_reg__
	movw r24,r12
	icall
.LVL9:
	or r24,r25
	brne .L5
.LVL10:
.L3:
	.loc 2 42 0
	movw r24,r10
/* epilogue start */
	pop r29
	pop r28
.LVL11:
	pop r17
	pop r16
	pop r15
	pop r14
	pop r13
	pop r12
.LVL12:
	pop r11
	pop r10
.LVL13:
	ret
	.cfi_endproc
.LFE112:
	.size	_ZN5Print5writeEPKhj, .-_ZN5Print5writeEPKhj
	.section	.text._ZN5Print5writeEPKc.part.2,"ax",@progbits
	.type	_ZN5Print5writeEPKc.part.2, @function
_ZN5Print5writeEPKc.part.2:
.LFB140:
	.loc 1 52 0
	.cfi_startproc
.LVL14:
/* prologue: function */
/* frame size = 0 */
/* stack size = 0 */
.L__stack_usage = 0
	.loc 1 54 0
	movw r30,r22
	0:
	ld __tmp_reg__,Z+
	tst __tmp_reg__
	brne 0b
	sbiw r30,1
	movw r20,r30
	sub r20,r22
	sbc r21,r23
	movw r26,r24
	ld r30,X+
	ld r31,X
	ldd __tmp_reg__,Z+2
	ldd r31,Z+3
	mov r30,__tmp_reg__
	ijmp
.LVL15:
	.cfi_endproc
.LFE140:
	.size	_ZN5Print5writeEPKc.part.2, .-_ZN5Print5writeEPKc.part.2
	.section	.text._ZN5Print5printEPK19__FlashStringHelper,"ax",@progbits
.global	_ZN5Print5printEPK19__FlashStringHelper
	.type	_ZN5Print5printEPK19__FlashStringHelper, @function
_ZN5Print5printEPK19__FlashStringHelper:
.LFB113:
	.loc 2 45 0
	.cfi_startproc
.LVL16:
	push r14
.LCFI10:
	.cfi_def_cfa_offset 3
	.cfi_offset 14, -2
	push r15
.LCFI11:
	.cfi_def_cfa_offset 4
	.cfi_offset 15, -3
	push r16
.LCFI12:
	.cfi_def_cfa_offset 5
	.cfi_offset 16, -4
	push r17
.LCFI13:
	.cfi_def_cfa_offset 6
	.cfi_offset 17, -5
	push r28
.LCFI14:
	.cfi_def_cfa_offset 7
	.cfi_offset 28, -6
	push r29
.LCFI15:
	.cfi_def_cfa_offset 8
	.cfi_offset 29, -7
/* prologue: function */
/* frame size = 0 */
/* stack size = 6 */
.L__stack_usage = 6
	movw r16,r24
	movw r14,r22
.LVL17:
	.loc 2 47 0
	ldi r29,0
	ldi r28,0
.LVL18:
.L10:
.LBB41:
.LBB42:
	.loc 2 49 0
	movw r30,r14
	add r30,r28
	adc r31,r29
.LVL19:
/* #APP */
 ;  49 "D:\Downloads\arduino-PR-beta1.9-BUILD-119\hardware\arduino\avr\cores\arduino\Print.cpp" 1
	lpm r22, Z
	
 ;  0 "" 2
.LVL20:
/* #NOAPP */
.LBE42:
	.loc 2 50 0
	tst r22
	breq .L8
	.loc 2 51 0
	movw r26,r16
	ld r30,X+
	ld r31,X
.LVL21:
	ld __tmp_reg__,Z+
	ld r31,Z
	mov r30,__tmp_reg__
	movw r24,r16
	icall
.LVL22:
	or r24,r25
	breq .L8
	.loc 2 51 0 is_stmt 0 discriminator 1
	adiw r28,1
.LVL23:
.LBE41:
	.loc 2 53 0 is_stmt 1 discriminator 1
	rjmp .L10
.LVL24:
.L8:
	.loc 2 55 0
	movw r24,r28
/* epilogue start */
	pop r29
	pop r28
.LVL25:
	pop r17
	pop r16
.LVL26:
	pop r15
	pop r14
.LVL27:
	ret
	.cfi_endproc
.LFE113:
	.size	_ZN5Print5printEPK19__FlashStringHelper, .-_ZN5Print5printEPK19__FlashStringHelper
	.section	.text._ZN5Print5printERK6String,"ax",@progbits
.global	_ZN5Print5printERK6String
	.type	_ZN5Print5printERK6String, @function
_ZN5Print5printERK6String:
.LFB114:
	.loc 2 58 0
	.cfi_startproc
.LVL28:
/* prologue: function */
/* frame size = 0 */
/* stack size = 0 */
.L__stack_usage = 0
.LBB45:
.LBB46:
	.loc 1 58 0
	movw r26,r22
	adiw r26,4
	ld r20,X+
	ld r21,X
	sbiw r26,4+1
	ld r22,X+
	ld r23,X
.LVL29:
	movw r26,r24
.LVL30:
	ld r30,X+
	ld r31,X
	ldd __tmp_reg__,Z+2
	ldd r31,Z+3
	mov r30,__tmp_reg__
	ijmp
.LVL31:
.LBE46:
.LBE45:
	.cfi_endproc
.LFE114:
	.size	_ZN5Print5printERK6String, .-_ZN5Print5printERK6String
	.section	.text._ZN5Print5printEPKc,"ax",@progbits
.global	_ZN5Print5printEPKc
	.type	_ZN5Print5printEPKc, @function
_ZN5Print5printEPKc:
.LFB115:
	.loc 2 63 0
	.cfi_startproc
.LVL32:
/* prologue: function */
/* frame size = 0 */
/* stack size = 0 */
.L__stack_usage = 0
.LBB49:
.LBB50:
	.loc 1 53 0
	cp r22,__zero_reg__
	cpc r23,__zero_reg__
	breq .L19
	jmp _ZN5Print5writeEPKc.part.2
.LVL33:
.L19:
.LBE50:
.LBE49:
	.loc 2 65 0
	ldi r25,0
	ldi r24,0
.LVL34:
/* epilogue start */
	ret
	.cfi_endproc
.LFE115:
	.size	_ZN5Print5printEPKc, .-_ZN5Print5printEPKc
	.section	.text._ZN5Print5printEc,"ax",@progbits
.global	_ZN5Print5printEc
	.type	_ZN5Print5printEc, @function
_ZN5Print5printEc:
.LFB116:
	.loc 2 68 0
	.cfi_startproc
.LVL35:
/* prologue: function */
/* frame size = 0 */
/* stack size = 0 */
.L__stack_usage = 0
	.loc 2 69 0
	movw r26,r24
	ld r30,X+
	ld r31,X
	ld __tmp_reg__,Z+
	ld r31,Z
	mov r30,__tmp_reg__
	ijmp
.LVL36:
	.cfi_endproc
.LFE116:
	.size	_ZN5Print5printEc, .-_ZN5Print5printEc
	.section	.text._ZN5Print5printERK9Printable,"ax",@progbits
.global	_ZN5Print5printERK9Printable
	.type	_ZN5Print5printERK9Printable, @function
_ZN5Print5printERK9Printable:
.LFB124:
	.loc 2 122 0
	.cfi_startproc
.LVL37:
/* prologue: function */
/* frame size = 0 */
/* stack size = 0 */
.L__stack_usage = 0
	movw r26,r22
	.loc 2 123 0
	ld r30,X+
	ld r31,X
	sbiw r26,1
	ld __tmp_reg__,Z+
	ld r31,Z
	mov r30,__tmp_reg__
	movw r22,r24
.LVL38:
	movw r24,r26
.LVL39:
	ijmp
.LVL40:
	.cfi_endproc
.LFE124:
	.size	_ZN5Print5printERK9Printable, .-_ZN5Print5printERK9Printable
	.section	.rodata._ZN5Print7printlnEv.str1.1,"aMS",@progbits,1
.LC0:
	.string	"\r\n"
	.section	.text._ZN5Print7printlnEv,"ax",@progbits
.global	_ZN5Print7printlnEv
	.type	_ZN5Print7printlnEv, @function
_ZN5Print7printlnEv:
.LFB125:
	.loc 2 127 0
	.cfi_startproc
.LVL41:
/* prologue: function */
/* frame size = 0 */
/* stack size = 0 */
.L__stack_usage = 0
.LBB51:
.LBB52:
	ldi r22,lo8(.LC0)
	ldi r23,hi8(.LC0)
	jmp _ZN5Print5writeEPKc.part.2
.LVL42:
.LBE52:
.LBE51:
	.cfi_endproc
.LFE125:
	.size	_ZN5Print7printlnEv, .-_ZN5Print7printlnEv
	.section	.text._ZN5Print7printlnEPK19__FlashStringHelper,"ax",@progbits
.global	_ZN5Print7printlnEPK19__FlashStringHelper
	.type	_ZN5Print7printlnEPK19__FlashStringHelper, @function
_ZN5Print7printlnEPK19__FlashStringHelper:
.LFB123:
	.loc 2 115 0
	.cfi_startproc
.LVL43:
	.loc 2 115 0
	push r16
.LCFI16:
	.cfi_def_cfa_offset 3
	.cfi_offset 16, -2
	push r17
.LCFI17:
	.cfi_def_cfa_offset 4
	.cfi_offset 17, -3
	push r28
.LCFI18:
	.cfi_def_cfa_offset 5
	.cfi_offset 28, -4
	push r29
.LCFI19:
	.cfi_def_cfa_offset 6
	.cfi_offset 29, -5
/* prologue: function */
/* frame size = 0 */
/* stack size = 4 */
.L__stack_usage = 4
	movw r28,r24
	.loc 2 116 0
	call _ZN5Print5printEPK19__FlashStringHelper
.LVL44:
	movw r16,r24
.LVL45:
	.loc 2 117 0
	movw r24,r28
	call _ZN5Print7printlnEv
.LVL46:
	.loc 2 119 0
	add r24,r16
	adc r25,r17
.LVL47:
/* epilogue start */
	pop r29
	pop r28
.LVL48:
	pop r17
	pop r16
	ret
	.cfi_endproc
.LFE123:
	.size	_ZN5Print7printlnEPK19__FlashStringHelper, .-_ZN5Print7printlnEPK19__FlashStringHelper
	.section	.text._ZN5Print7printlnERK6String,"ax",@progbits
.global	_ZN5Print7printlnERK6String
	.type	_ZN5Print7printlnERK6String, @function
_ZN5Print7printlnERK6String:
.LFB126:
	.loc 2 132 0
	.cfi_startproc
.LVL49:
	push r16
.LCFI20:
	.cfi_def_cfa_offset 3
	.cfi_offset 16, -2
	push r17
.LCFI21:
	.cfi_def_cfa_offset 4
	.cfi_offset 17, -3
	push r28
.LCFI22:
	.cfi_def_cfa_offset 5
	.cfi_offset 28, -4
	push r29
.LCFI23:
	.cfi_def_cfa_offset 6
	.cfi_offset 29, -5
/* prologue: function */
/* frame size = 0 */
/* stack size = 4 */
.L__stack_usage = 4
	movw r28,r24
	.loc 2 133 0
	call _ZN5Print5printERK6String
.LVL50:
	movw r16,r24
.LVL51:
	.loc 2 134 0
	movw r24,r28
	call _ZN5Print7printlnEv
.LVL52:
	.loc 2 136 0
	add r24,r16
	adc r25,r17
.LVL53:
/* epilogue start */
	pop r29
	pop r28
.LVL54:
	pop r17
	pop r16
	ret
	.cfi_endproc
.LFE126:
	.size	_ZN5Print7printlnERK6String, .-_ZN5Print7printlnERK6String
	.section	.text._ZN5Print7printlnEPKc,"ax",@progbits
.global	_ZN5Print7printlnEPKc
	.type	_ZN5Print7printlnEPKc, @function
_ZN5Print7printlnEPKc:
.LFB127:
	.loc 2 139 0
	.cfi_startproc
.LVL55:
	push r16
.LCFI24:
	.cfi_def_cfa_offset 3
	.cfi_offset 16, -2
	push r17
.LCFI25:
	.cfi_def_cfa_offset 4
	.cfi_offset 17, -3
	push r28
.LCFI26:
	.cfi_def_cfa_offset 5
	.cfi_offset 28, -4
	push r29
.LCFI27:
	.cfi_def_cfa_offset 6
	.cfi_offset 29, -5
/* prologue: function */
/* frame size = 0 */
/* stack size = 4 */
.L__stack_usage = 4
	movw r16,r24
.LVL56:
.LBB57:
.LBB58:
.LBB59:
	.loc 1 53 0
	ldi r29,0
	ldi r28,0
	.loc 1 53 0
	cp r22,__zero_reg__
	cpc r23,__zero_reg__
	breq .L26
	call _ZN5Print5writeEPKc.part.2
.LVL57:
	movw r28,r24
.L26:
.LVL58:
.LBE59:
.LBE58:
.LBE57:
	.loc 2 141 0
	movw r24,r16
	call _ZN5Print7printlnEv
.LVL59:
	.loc 2 143 0
	add r24,r28
	adc r25,r29
.LVL60:
/* epilogue start */
	pop r29
	pop r28
	pop r17
	pop r16
.LVL61:
	ret
	.cfi_endproc
.LFE127:
	.size	_ZN5Print7printlnEPKc, .-_ZN5Print7printlnEPKc
	.section	.text._ZN5Print7printlnEc,"ax",@progbits
.global	_ZN5Print7printlnEc
	.type	_ZN5Print7printlnEc, @function
_ZN5Print7printlnEc:
.LFB128:
	.loc 2 146 0
	.cfi_startproc
.LVL62:
	push r16
.LCFI28:
	.cfi_def_cfa_offset 3
	.cfi_offset 16, -2
	push r17
.LCFI29:
	.cfi_def_cfa_offset 4
	.cfi_offset 17, -3
	push r28
.LCFI30:
	.cfi_def_cfa_offset 5
	.cfi_offset 28, -4
	push r29
.LCFI31:
	.cfi_def_cfa_offset 6
	.cfi_offset 29, -5
/* prologue: function */
/* frame size = 0 */
/* stack size = 4 */
.L__stack_usage = 4
	movw r28,r24
	.loc 2 147 0
	call _ZN5Print5printEc
.LVL63:
	movw r16,r24
.LVL64:
	.loc 2 148 0
	movw r24,r28
	call _ZN5Print7printlnEv
.LVL65:
	.loc 2 150 0
	add r24,r16
	adc r25,r17
.LVL66:
/* epilogue start */
	pop r29
	pop r28
.LVL67:
	pop r17
	pop r16
	ret
	.cfi_endproc
.LFE128:
	.size	_ZN5Print7printlnEc, .-_ZN5Print7printlnEc
	.section	.text._ZN5Print7printlnERK9Printable,"ax",@progbits
.global	_ZN5Print7printlnERK9Printable
	.type	_ZN5Print7printlnERK9Printable, @function
_ZN5Print7printlnERK9Printable:
.LFB135:
	.loc 2 195 0
	.cfi_startproc
.LVL68:
	push r16
.LCFI32:
	.cfi_def_cfa_offset 3
	.cfi_offset 16, -2
	push r17
.LCFI33:
	.cfi_def_cfa_offset 4
	.cfi_offset 17, -3
	push r28
.LCFI34:
	.cfi_def_cfa_offset 5
	.cfi_offset 28, -4
	push r29
.LCFI35:
	.cfi_def_cfa_offset 6
	.cfi_offset 29, -5
/* prologue: function */
/* frame size = 0 */
/* stack size = 4 */
.L__stack_usage = 4
	movw r28,r24
	.loc 2 196 0
	call _ZN5Print5printERK9Printable
.LVL69:
	movw r16,r24
.LVL70:
	.loc 2 197 0
	movw r24,r28
	call _ZN5Print7printlnEv
.LVL71:
	.loc 2 199 0
	add r24,r16
	adc r25,r17
.LVL72:
/* epilogue start */
	pop r29
	pop r28
.LVL73:
	pop r17
	pop r16
	ret
	.cfi_endproc
.LFE135:
	.size	_ZN5Print7printlnERK9Printable, .-_ZN5Print7printlnERK9Printable
	.section	.text._ZN5Print11printNumberEmh,"ax",@progbits
.global	_ZN5Print11printNumberEmh
	.type	_ZN5Print11printNumberEmh, @function
_ZN5Print11printNumberEmh:
.LFB136:
	.loc 2 204 0
	.cfi_startproc
.LVL74:
	push r8
.LCFI36:
	.cfi_def_cfa_offset 3
	.cfi_offset 8, -2
	push r9
.LCFI37:
	.cfi_def_cfa_offset 4
	.cfi_offset 9, -3
	push r10
.LCFI38:
	.cfi_def_cfa_offset 5
	.cfi_offset 10, -4
	push r11
.LCFI39:
	.cfi_def_cfa_offset 6
	.cfi_offset 11, -5
	push r14
.LCFI40:
	.cfi_def_cfa_offset 7
	.cfi_offset 14, -6
	push r15
.LCFI41:
	.cfi_def_cfa_offset 8
	.cfi_offset 15, -7
	push r16
.LCFI42:
	.cfi_def_cfa_offset 9
	.cfi_offset 16, -8
	push r17
.LCFI43:
	.cfi_def_cfa_offset 10
	.cfi_offset 17, -9
	push r28
.LCFI44:
	.cfi_def_cfa_offset 11
	.cfi_offset 28, -10
	push r29
.LCFI45:
	.cfi_def_cfa_offset 12
	.cfi_offset 29, -11
	in r28,__SP_L__
	in r29,__SP_H__
.LCFI46:
	.cfi_def_cfa_register 28
	sbiw r28,33
.LCFI47:
	.cfi_def_cfa_offset 45
	in __tmp_reg__,__SREG__
	cli
	out __SP_H__,r29
	out __SREG__,__tmp_reg__
	out __SP_L__,r28
/* prologue: function */
/* frame size = 33 */
/* stack size = 43 */
.L__stack_usage = 43
	movw r14,r24
	movw r30,r20
	movw r24,r22
.LVL75:
	.loc 2 208 0
	std Y+33,__zero_reg__
	.loc 2 211 0
	cpi r18,lo8(2)
	brsh .L31
	ldi r18,lo8(10)
.LVL76:
.L31:
	movw r16,r28
	subi r16,-33
	sbci r17,-1
.LBB63:
	.loc 2 214 0
	mov r8,r18
	mov r9,__zero_reg__
	mov r11,__zero_reg__
	mov r10,__zero_reg__
.LVL77:
.L34:
	movw r22,r30
	movw r20,r10
	movw r18,r8
	call __udivmodsi4
.LVL78:
	.loc 2 215 0
	movw r30,r18
	movw r24,r20
.LVL79:
	.loc 2 217 0
	cpi r22,lo8(10)
	brge .L32
	.loc 2 217 0 is_stmt 0 discriminator 1
	subi r22,lo8(-(48))
.LVL80:
.L33:
	.loc 2 217 0 discriminator 4
	movw r26,r16
	st -X,r22
	movw r16,r26
.LVL81:
.LBE63:
	.loc 2 218 0 is_stmt 1 discriminator 4
	or r18,r19
	or r18,r20
	or r18,r21
	brne .L34
.LVL82:
.LBB64:
.LBB65:
	.loc 1 53 0
	ldi r25,0
	ldi r24,0
	.loc 1 53 0
	sbiw r26,0
	breq .L30
	movw r22,r26
	movw r24,r14
	call _ZN5Print5writeEPKc.part.2
.LVL83:
.L30:
/* epilogue start */
.LBE65:
.LBE64:
	.loc 2 221 0
	adiw r28,33
	in __tmp_reg__,__SREG__
	cli
	out __SP_H__,r29
	out __SREG__,__tmp_reg__
	out __SP_L__,r28
	pop r29
	pop r28
	pop r17
	pop r16
.LVL84:
	pop r15
	pop r14
.LVL85:
	pop r11
	pop r10
	pop r9
	pop r8
	ret
.LVL86:
.L32:
.LBB66:
	.loc 2 217 0 discriminator 2
	subi r22,lo8(-(55))
.LVL87:
	rjmp .L33
.LBE66:
	.cfi_endproc
.LFE136:
	.size	_ZN5Print11printNumberEmh, .-_ZN5Print11printNumberEmh
	.section	.text._ZN5Print5printEli,"ax",@progbits
.global	_ZN5Print5printEli
	.type	_ZN5Print5printEli, @function
_ZN5Print5printEli:
.LFB120:
	.loc 2 88 0
	.cfi_startproc
.LVL88:
	push r12
.LCFI48:
	.cfi_def_cfa_offset 3
	.cfi_offset 12, -2
	push r13
.LCFI49:
	.cfi_def_cfa_offset 4
	.cfi_offset 13, -3
	push r14
.LCFI50:
	.cfi_def_cfa_offset 5
	.cfi_offset 14, -4
	push r15
.LCFI51:
	.cfi_def_cfa_offset 6
	.cfi_offset 15, -5
	push r16
.LCFI52:
	.cfi_def_cfa_offset 7
	.cfi_offset 16, -6
	push r17
.LCFI53:
	.cfi_def_cfa_offset 8
	.cfi_offset 17, -7
	push r28
.LCFI54:
	.cfi_def_cfa_offset 9
	.cfi_offset 28, -8
	push r29
.LCFI55:
	.cfi_def_cfa_offset 10
	.cfi_offset 29, -9
/* prologue: function */
/* frame size = 0 */
/* stack size = 8 */
.L__stack_usage = 8
.LBB78:
	.loc 2 89 0
	cp r18,__zero_reg__
	cpc r19,__zero_reg__
	brne .L40
	.loc 2 90 0
	movw r26,r24
	ld r30,X+
	ld r31,X
	ld __tmp_reg__,Z+
	ld r31,Z
	mov r30,__tmp_reg__
	mov r22,r20
/* epilogue start */
.LBE78:
	.loc 2 101 0
	pop r29
	pop r28
	pop r17
	pop r16
	pop r15
	pop r14
	pop r13
	pop r12
.LBB83:
	.loc 2 90 0
	ijmp
.LVL89:
.L40:
.LBB79:
	.loc 2 91 0
	cpi r18,10
	cpc r19,__zero_reg__
	brne .L41
.LBB80:
	.loc 2 97 0
	ldi r18,lo8(10)
.LVL90:
.LBB81:
	.loc 2 92 0
	sbrs r23,7
	rjmp .L41
	movw r12,r20
	movw r14,r22
	movw r28,r24
.LVL91:
.LBE81:
.LBE80:
.LBE79:
.LBE83:
.LBB84:
.LBB85:
	.loc 2 93 0
	ldi r22,lo8(45)
	call _ZN5Print5printEc
.LVL92:
	movw r16,r24
.LVL93:
	.loc 2 94 0
	clr r20
	clr r21
	movw r22,r20
	sub r20,r12
	sbc r21,r13
	sbc r22,r14
	sbc r23,r15
.LVL94:
	.loc 2 95 0
	ldi r18,lo8(10)
	movw r24,r28
	call _ZN5Print11printNumberEmh
.LVL95:
	add r24,r16
	adc r25,r17
.LVL96:
/* epilogue start */
.LBE85:
.LBE84:
	.loc 2 101 0
	pop r29
	pop r28
.LVL97:
	pop r17
	pop r16
	pop r15
	pop r14
	pop r13
	pop r12
	ret
.LVL98:
.L41:
/* epilogue start */
	pop r29
	pop r28
	pop r17
	pop r16
	pop r15
	pop r14
	pop r13
	pop r12
.LBB86:
.LBB82:
	.loc 2 99 0
	jmp _ZN5Print11printNumberEmh
.LVL99:
.LBE82:
.LBE86:
	.cfi_endproc
.LFE120:
	.size	_ZN5Print5printEli, .-_ZN5Print5printEli
	.section	.text._ZN5Print5printEii,"ax",@progbits
.global	_ZN5Print5printEii
	.type	_ZN5Print5printEii, @function
_ZN5Print5printEii:
.LFB118:
	.loc 2 78 0
	.cfi_startproc
.LVL100:
/* prologue: function */
/* frame size = 0 */
/* stack size = 0 */
.L__stack_usage = 0
	movw r18,r20
	.loc 2 79 0
	movw r20,r22
	lsl r23
	sbc r22,r22
	sbc r23,r23
.LVL101:
	jmp _ZN5Print5printEli
.LVL102:
	.cfi_endproc
.LFE118:
	.size	_ZN5Print5printEii, .-_ZN5Print5printEii
	.section	.text._ZN5Print7printlnEii,"ax",@progbits
.global	_ZN5Print7printlnEii
	.type	_ZN5Print7printlnEii, @function
_ZN5Print7printlnEii:
.LFB130:
	.loc 2 160 0
	.cfi_startproc
.LVL103:
	push r16
.LCFI56:
	.cfi_def_cfa_offset 3
	.cfi_offset 16, -2
	push r17
.LCFI57:
	.cfi_def_cfa_offset 4
	.cfi_offset 17, -3
	push r28
.LCFI58:
	.cfi_def_cfa_offset 5
	.cfi_offset 28, -4
	push r29
.LCFI59:
	.cfi_def_cfa_offset 6
	.cfi_offset 29, -5
/* prologue: function */
/* frame size = 0 */
/* stack size = 4 */
.L__stack_usage = 4
	movw r28,r24
	.loc 2 161 0
	call _ZN5Print5printEii
.LVL104:
	movw r16,r24
.LVL105:
	.loc 2 162 0
	movw r24,r28
	call _ZN5Print7printlnEv
.LVL106:
	.loc 2 164 0
	add r24,r16
	adc r25,r17
.LVL107:
/* epilogue start */
	pop r29
	pop r28
.LVL108:
	pop r17
	pop r16
	ret
	.cfi_endproc
.LFE130:
	.size	_ZN5Print7printlnEii, .-_ZN5Print7printlnEii
	.section	.text._ZN5Print7printlnEli,"ax",@progbits
.global	_ZN5Print7printlnEli
	.type	_ZN5Print7printlnEli, @function
_ZN5Print7printlnEli:
.LFB132:
	.loc 2 174 0
	.cfi_startproc
.LVL109:
	push r16
.LCFI60:
	.cfi_def_cfa_offset 3
	.cfi_offset 16, -2
	push r17
.LCFI61:
	.cfi_def_cfa_offset 4
	.cfi_offset 17, -3
	push r28
.LCFI62:
	.cfi_def_cfa_offset 5
	.cfi_offset 28, -4
	push r29
.LCFI63:
	.cfi_def_cfa_offset 6
	.cfi_offset 29, -5
/* prologue: function */
/* frame size = 0 */
/* stack size = 4 */
.L__stack_usage = 4
	movw r28,r24
	.loc 2 175 0
	call _ZN5Print5printEli
.LVL110:
	movw r16,r24
.LVL111:
	.loc 2 176 0
	movw r24,r28
	call _ZN5Print7printlnEv
.LVL112:
	.loc 2 178 0
	add r24,r16
	adc r25,r17
.LVL113:
/* epilogue start */
	pop r29
	pop r28
.LVL114:
	pop r17
	pop r16
	ret
	.cfi_endproc
.LFE132:
	.size	_ZN5Print7printlnEli, .-_ZN5Print7printlnEli
	.section	.text._ZN5Print5printEmi,"ax",@progbits
.global	_ZN5Print5printEmi
	.type	_ZN5Print5printEmi, @function
_ZN5Print5printEmi:
.LFB121:
	.loc 2 104 0
	.cfi_startproc
.LVL115:
/* prologue: function */
/* frame size = 0 */
/* stack size = 0 */
.L__stack_usage = 0
	.loc 2 105 0
	cp r18,__zero_reg__
	cpc r19,__zero_reg__
	brne .L49
.LVL116:
.LBB89:
.LBB90:
	movw r26,r24
	ld r30,X+
	ld r31,X
	ld __tmp_reg__,Z+
	ld r31,Z
	mov r30,__tmp_reg__
	mov r22,r20
.LVL117:
	ijmp
.LVL118:
.L49:
.LBE90:
.LBE89:
	.loc 2 106 0
	jmp _ZN5Print11printNumberEmh
.LVL119:
	.cfi_endproc
.LFE121:
	.size	_ZN5Print5printEmi, .-_ZN5Print5printEmi
	.section	.text._ZN5Print5printEhi,"ax",@progbits
.global	_ZN5Print5printEhi
	.type	_ZN5Print5printEhi, @function
_ZN5Print5printEhi:
.LFB117:
	.loc 2 73 0
	.cfi_startproc
.LVL120:
/* prologue: function */
/* frame size = 0 */
/* stack size = 0 */
.L__stack_usage = 0
	movw r18,r20
	.loc 2 74 0
	mov r20,r22
.LVL121:
	ldi r21,0
	ldi r23,0
	ldi r22,0
.LVL122:
	jmp _ZN5Print5printEmi
.LVL123:
	.cfi_endproc
.LFE117:
	.size	_ZN5Print5printEhi, .-_ZN5Print5printEhi
	.section	.text._ZN5Print7printlnEhi,"ax",@progbits
.global	_ZN5Print7printlnEhi
	.type	_ZN5Print7printlnEhi, @function
_ZN5Print7printlnEhi:
.LFB129:
	.loc 2 153 0
	.cfi_startproc
.LVL124:
	push r16
.LCFI64:
	.cfi_def_cfa_offset 3
	.cfi_offset 16, -2
	push r17
.LCFI65:
	.cfi_def_cfa_offset 4
	.cfi_offset 17, -3
	push r28
.LCFI66:
	.cfi_def_cfa_offset 5
	.cfi_offset 28, -4
	push r29
.LCFI67:
	.cfi_def_cfa_offset 6
	.cfi_offset 29, -5
/* prologue: function */
/* frame size = 0 */
/* stack size = 4 */
.L__stack_usage = 4
	movw r28,r24
	.loc 2 154 0
	call _ZN5Print5printEhi
.LVL125:
	movw r16,r24
.LVL126:
	.loc 2 155 0
	movw r24,r28
	call _ZN5Print7printlnEv
.LVL127:
	.loc 2 157 0
	add r24,r16
	adc r25,r17
.LVL128:
/* epilogue start */
	pop r29
	pop r28
.LVL129:
	pop r17
	pop r16
	ret
	.cfi_endproc
.LFE129:
	.size	_ZN5Print7printlnEhi, .-_ZN5Print7printlnEhi
	.section	.text._ZN5Print5printEji,"ax",@progbits
.global	_ZN5Print5printEji
	.type	_ZN5Print5printEji, @function
_ZN5Print5printEji:
.LFB119:
	.loc 2 83 0
	.cfi_startproc
.LVL130:
/* prologue: function */
/* frame size = 0 */
/* stack size = 0 */
.L__stack_usage = 0
	movw r18,r20
	.loc 2 84 0
	movw r20,r22
.LVL131:
	ldi r23,0
	ldi r22,0
.LVL132:
	jmp _ZN5Print5printEmi
.LVL133:
	.cfi_endproc
.LFE119:
	.size	_ZN5Print5printEji, .-_ZN5Print5printEji
	.section	.text._ZN5Print7printlnEji,"ax",@progbits
.global	_ZN5Print7printlnEji
	.type	_ZN5Print7printlnEji, @function
_ZN5Print7printlnEji:
.LFB131:
	.loc 2 167 0
	.cfi_startproc
.LVL134:
	push r16
.LCFI68:
	.cfi_def_cfa_offset 3
	.cfi_offset 16, -2
	push r17
.LCFI69:
	.cfi_def_cfa_offset 4
	.cfi_offset 17, -3
	push r28
.LCFI70:
	.cfi_def_cfa_offset 5
	.cfi_offset 28, -4
	push r29
.LCFI71:
	.cfi_def_cfa_offset 6
	.cfi_offset 29, -5
/* prologue: function */
/* frame size = 0 */
/* stack size = 4 */
.L__stack_usage = 4
	movw r28,r24
	.loc 2 168 0
	call _ZN5Print5printEji
.LVL135:
	movw r16,r24
.LVL136:
	.loc 2 169 0
	movw r24,r28
	call _ZN5Print7printlnEv
.LVL137:
	.loc 2 171 0
	add r24,r16
	adc r25,r17
.LVL138:
/* epilogue start */
	pop r29
	pop r28
.LVL139:
	pop r17
	pop r16
	ret
	.cfi_endproc
.LFE131:
	.size	_ZN5Print7printlnEji, .-_ZN5Print7printlnEji
	.section	.text._ZN5Print7printlnEmi,"ax",@progbits
.global	_ZN5Print7printlnEmi
	.type	_ZN5Print7printlnEmi, @function
_ZN5Print7printlnEmi:
.LFB133:
	.loc 2 181 0
	.cfi_startproc
.LVL140:
	push r16
.LCFI72:
	.cfi_def_cfa_offset 3
	.cfi_offset 16, -2
	push r17
.LCFI73:
	.cfi_def_cfa_offset 4
	.cfi_offset 17, -3
	push r28
.LCFI74:
	.cfi_def_cfa_offset 5
	.cfi_offset 28, -4
	push r29
.LCFI75:
	.cfi_def_cfa_offset 6
	.cfi_offset 29, -5
/* prologue: function */
/* frame size = 0 */
/* stack size = 4 */
.L__stack_usage = 4
	movw r28,r24
	.loc 2 182 0
	call _ZN5Print5printEmi
.LVL141:
	movw r16,r24
.LVL142:
	.loc 2 183 0
	movw r24,r28
	call _ZN5Print7printlnEv
.LVL143:
	.loc 2 185 0
	add r24,r16
	adc r25,r17
.LVL144:
/* epilogue start */
	pop r29
	pop r28
.LVL145:
	pop r17
	pop r16
	ret
	.cfi_endproc
.LFE133:
	.size	_ZN5Print7printlnEmi, .-_ZN5Print7printlnEmi
.global	__unordsf2
	.section	.rodata._ZN5Print10printFloatEdh.str1.1,"aMS",@progbits,1
.LC1:
	.string	"nan"
.global	__lesf2
.LC2:
	.string	"inf"
.global	__gtsf2
.LC3:
	.string	"ovf"
.global	__ltsf2
.global	__divsf3
.global	__addsf3
.global	__fixunssfsi
.global	__floatunsisf
.global	__subsf3
.global	__mulsf3
	.section	.text._ZN5Print10printFloatEdh,"ax",@progbits
.global	_ZN5Print10printFloatEdh
	.type	_ZN5Print10printFloatEdh, @function
_ZN5Print10printFloatEdh:
.LFB137:
	.loc 2 224 0
	.cfi_startproc
.LVL146:
	push r2
.LCFI76:
	.cfi_def_cfa_offset 3
	.cfi_offset 2, -2
	push r3
.LCFI77:
	.cfi_def_cfa_offset 4
	.cfi_offset 3, -3
	push r4
.LCFI78:
	.cfi_def_cfa_offset 5
	.cfi_offset 4, -4
	push r5
.LCFI79:
	.cfi_def_cfa_offset 6
	.cfi_offset 5, -5
	push r6
.LCFI80:
	.cfi_def_cfa_offset 7
	.cfi_offset 6, -6
	push r7
.LCFI81:
	.cfi_def_cfa_offset 8
	.cfi_offset 7, -7
	push r8
.LCFI82:
	.cfi_def_cfa_offset 9
	.cfi_offset 8, -8
	push r9
.LCFI83:
	.cfi_def_cfa_offset 10
	.cfi_offset 9, -9
	push r10
.LCFI84:
	.cfi_def_cfa_offset 11
	.cfi_offset 10, -10
	push r11
.LCFI85:
	.cfi_def_cfa_offset 12
	.cfi_offset 11, -11
	push r12
.LCFI86:
	.cfi_def_cfa_offset 13
	.cfi_offset 12, -12
	push r13
.LCFI87:
	.cfi_def_cfa_offset 14
	.cfi_offset 13, -13
	push r14
.LCFI88:
	.cfi_def_cfa_offset 15
	.cfi_offset 14, -14
	push r15
.LCFI89:
	.cfi_def_cfa_offset 16
	.cfi_offset 15, -15
	push r17
.LCFI90:
	.cfi_def_cfa_offset 17
	.cfi_offset 17, -16
	push r28
.LCFI91:
	.cfi_def_cfa_offset 18
	.cfi_offset 28, -17
	push r29
.LCFI92:
	.cfi_def_cfa_offset 19
	.cfi_offset 29, -18
/* prologue: function */
/* frame size = 0 */
/* stack size = 17 */
.L__stack_usage = 17
	movw r28,r24
	movw r12,r20
	movw r14,r22
	mov r7,r18
.LVL147:
	.loc 2 227 0
	movw r20,r22
.LVL148:
	movw r18,r12
.LVL149:
	movw r24,r22
.LVL150:
	movw r22,r12
	call __unordsf2
.LVL151:
.LBB121:
.LBB122:
.LBB123:
	ldi r22,lo8(.LC1)
	ldi r23,hi8(.LC1)
.LBE123:
.LBE122:
.LBE121:
	cpse r24,__zero_reg__
	rjmp .L80
	.loc 2 228 0
	movw r8,r12
	movw r10,r14
	clt
	bld r11,7
	ldi r18,lo8(-1)
	ldi r19,lo8(-1)
	ldi r20,lo8(127)
	ldi r21,lo8(127)
	movw r24,r10
	movw r22,r8
	call __unordsf2
.LVL152:
	cpse r24,__zero_reg__
	rjmp .L58
	ldi r18,lo8(-1)
	ldi r19,lo8(-1)
	ldi r20,lo8(127)
	ldi r21,lo8(127)
	movw r24,r10
	movw r22,r8
	call __lesf2
.LVL153:
.LBB124:
.LBB125:
.LBB126:
	ldi r22,lo8(.LC2)
	ldi r23,hi8(.LC2)
.LBE126:
.LBE125:
.LBE124:
	cp __zero_reg__,r24
	brlt .L80
.L58:
	.loc 2 229 0
	ldi r18,lo8(-1)
	ldi r19,lo8(-1)
	ldi r20,lo8(127)
	ldi r21,lo8(79)
	movw r24,r14
	movw r22,r12
	call __gtsf2
.LVL154:
	cp __zero_reg__,r24
	brge .L78
.L61:
.LVL155:
.LBB127:
.LBB128:
.LBB129:
	ldi r22,lo8(.LC3)
	ldi r23,hi8(.LC3)
.LVL156:
.L80:
	movw r24,r28
/* epilogue start */
.LBE129:
.LBE128:
.LBE127:
	.loc 2 266 0
	pop r29
	pop r28
.LVL157:
	pop r17
	pop r15
	pop r14
	pop r13
	pop r12
	pop r11
	pop r10
	pop r9
	pop r8
	pop r7
.LVL158:
	pop r6
	pop r5
	pop r4
	pop r3
	pop r2
.LBB132:
.LBB131:
.LBB130:
	jmp _ZN5Print5writeEPKc.part.2
.LVL159:
.L78:
.LBE130:
.LBE131:
.LBE132:
	.loc 2 230 0
	ldi r18,lo8(-1)
	ldi r19,lo8(-1)
	ldi r20,lo8(127)
	ldi r21,lo8(-49)
	movw r24,r14
	movw r22,r12
	call __ltsf2
.LVL160:
	sbrc r24,7
	rjmp .L61
.LVL161:
.LBB133:
.LBB134:
	.loc 2 233 0
	ldi r18,0
	ldi r19,0
	movw r20,r18
	movw r24,r14
	movw r22,r12
	call __ltsf2
.LVL162:
	.loc 2 225 0
	mov r3,__zero_reg__
	mov r2,__zero_reg__
	.loc 2 233 0
	sbrs r24,7
	rjmp .L62
	.loc 2 235 0
	ldi r22,lo8(45)
	movw r24,r28
	call _ZN5Print5printEc
.LVL163:
	movw r2,r24
.LVL164:
	.loc 2 236 0
	bst r15,7
	com r15
	bld r15,7
	com r15
.LVL165:
.L62:
.LBB135:
	.loc 2 241 0
	ldi r17,0
.LBE135:
	.loc 2 240 0
	ldi r22,0
	ldi r23,0
	ldi r24,0
	ldi r25,lo8(63)
.LVL166:
.L65:
.LBB136:
	.loc 2 241 0
	cp r7,r17
	breq .L64
	.loc 2 242 0
	ldi r18,0
	ldi r19,0
	ldi r20,lo8(32)
	ldi r21,lo8(65)
	call __divsf3
.LVL167:
	.loc 2 241 0
	subi r17,lo8(-(1))
.LVL168:
	rjmp .L65
.L64:
.LBE136:
	.loc 2 244 0
	movw r20,r14
	movw r18,r12
	call __addsf3
.LVL169:
	movw r4,r22
	movw r6,r24
.LVL170:
	.loc 2 247 0
	call __fixunssfsi
.LVL171:
	movw r8,r22
	movw r10,r24
.LVL172:
.LBB137:
.LBB138:
	.loc 2 106 0
	ldi r18,lo8(10)
	movw r22,r24
	movw r20,r8
	movw r24,r28
	call _ZN5Print11printNumberEmh
.LVL173:
.LBE138:
.LBE137:
	.loc 2 249 0
	movw r14,r24
	add r14,r2
	adc r15,r3
.LVL174:
	.loc 2 252 0
	tst r17
	breq .L55
	.loc 2 248 0
	movw r24,r10
	movw r22,r8
	call __floatunsisf
.LVL175:
	movw r18,r22
	movw r20,r24
	movw r24,r6
	movw r22,r4
	call __subsf3
.LVL176:
	movw r8,r22
.LVL177:
	movw r10,r24
	.loc 2 253 0
	ldi r22,lo8(46)
	movw r24,r28
	call _ZN5Print5printEc
.LVL178:
	add r14,r24
	adc r15,r25
.LVL179:
.L67:
	.loc 2 257 0
.LVL180:
	subi r17,1
	brcs .L55
.LBB139:
	.loc 2 259 0
	ldi r18,0
	ldi r19,0
	ldi r20,lo8(32)
	ldi r21,lo8(65)
	movw r24,r10
	movw r22,r8
	call __mulsf3
.LVL181:
	movw r4,r22
	movw r6,r24
.LVL182:
	.loc 2 260 0
	call __fixunssfsi
.LVL183:
	movw r8,r22
.LVL184:
	.loc 2 261 0
	ldi r20,lo8(10)
	ldi r21,0
	movw r24,r28
	call _ZN5Print5printEji
.LVL185:
	add r14,r24
	adc r15,r25
.LVL186:
	.loc 2 262 0
	movw r22,r8
	ldi r25,0
	ldi r24,0
	call __floatunsisf
.LVL187:
	movw r18,r22
	movw r20,r24
	movw r24,r6
	movw r22,r4
	call __subsf3
.LVL188:
	movw r8,r22
.LVL189:
	movw r10,r24
.LVL190:
	rjmp .L67
.LVL191:
.L55:
.LBE139:
.LBE134:
.LBE133:
	.loc 2 266 0
	movw r24,r14
/* epilogue start */
	pop r29
	pop r28
.LVL192:
	pop r17
	pop r15
	pop r14
.LVL193:
	pop r13
	pop r12
	pop r11
	pop r10
	pop r9
	pop r8
	pop r7
.LVL194:
	pop r6
	pop r5
	pop r4
	pop r3
	pop r2
	ret
	.cfi_endproc
.LFE137:
	.size	_ZN5Print10printFloatEdh, .-_ZN5Print10printFloatEdh
	.section	.text._ZN5Print5printEdi,"ax",@progbits
.global	_ZN5Print5printEdi
	.type	_ZN5Print5printEdi, @function
_ZN5Print5printEdi:
.LFB122:
	.loc 2 110 0
	.cfi_startproc
.LVL195:
/* prologue: function */
/* frame size = 0 */
/* stack size = 0 */
.L__stack_usage = 0
	.loc 2 111 0
	jmp _ZN5Print10printFloatEdh
.LVL196:
	.cfi_endproc
.LFE122:
	.size	_ZN5Print5printEdi, .-_ZN5Print5printEdi
	.section	.text._ZN5Print7printlnEdi,"ax",@progbits
.global	_ZN5Print7printlnEdi
	.type	_ZN5Print7printlnEdi, @function
_ZN5Print7printlnEdi:
.LFB134:
	.loc 2 188 0
	.cfi_startproc
.LVL197:
	push r16
.LCFI93:
	.cfi_def_cfa_offset 3
	.cfi_offset 16, -2
	push r17
.LCFI94:
	.cfi_def_cfa_offset 4
	.cfi_offset 17, -3
	push r28
.LCFI95:
	.cfi_def_cfa_offset 5
	.cfi_offset 28, -4
	push r29
.LCFI96:
	.cfi_def_cfa_offset 6
	.cfi_offset 29, -5
/* prologue: function */
/* frame size = 0 */
/* stack size = 4 */
.L__stack_usage = 4
	movw r28,r24
.LVL198:
.LBB140:
.LBB141:
	.loc 2 111 0
	call _ZN5Print10printFloatEdh
.LVL199:
	movw r16,r24
.LVL200:
.LBE141:
.LBE140:
	.loc 2 190 0
	movw r24,r28
	call _ZN5Print7printlnEv
.LVL201:
	.loc 2 192 0
	add r24,r16
	adc r25,r17
.LVL202:
/* epilogue start */
	pop r29
	pop r28
.LVL203:
	pop r17
	pop r16
	ret
	.cfi_endproc
.LFE134:
	.size	_ZN5Print7printlnEdi, .-_ZN5Print7printlnEdi
	.weak	_ZTV5Print
	.section	.rodata._ZTV5Print,"aG",@progbits,_ZTV5Print,comdat
	.type	_ZTV5Print, @object
	.size	_ZTV5Print, 12
_ZTV5Print:
	.word	0
	.word	0
	.word	gs(__cxa_pure_virtual)
	.word	gs(_ZN5Print5writeEPKhj)
	.word	gs(_ZN5Print17availableForWriteEv)
	.word	gs(_ZN5Print5flushEv)
	.text
.Letext0:
	.file 3 "d:\\downloads\\arduino-pr-beta1.9-build-119\\hardware\\tools\\avr\\avr\\include\\stdlib.h"
	.file 4 "d:\\downloads\\arduino-pr-beta1.9-build-119\\hardware\\tools\\avr\\lib\\gcc\\avr\\7.3.0\\include\\stddef.h"
	.file 5 "d:\\downloads\\arduino-pr-beta1.9-build-119\\hardware\\tools\\avr\\avr\\include\\stdint.h"
	.file 6 "d:\\downloads\\arduino-pr-beta1.9-build-119\\hardware\\tools\\avr\\avr\\include\\stdio.h"
	.file 7 "D:\\Downloads\\arduino-PR-beta1.9-BUILD-119\\hardware\\arduino\\avr\\cores\\arduino\\Arduino.h"
	.file 8 "D:\\Downloads\\arduino-PR-beta1.9-BUILD-119\\hardware\\arduino\\avr\\cores\\arduino\\WString.h"
	.file 9 "D:\\Downloads\\arduino-PR-beta1.9-BUILD-119\\hardware\\arduino\\avr\\cores\\arduino\\HardwareSerial.h"
	.file 10 "D:\\Downloads\\arduino-PR-beta1.9-BUILD-119/hardware/arduino/avr/variants/standard/pins_arduino.h"
	.file 11 "D:\\Downloads\\arduino-PR-beta1.9-BUILD-119\\hardware\\arduino\\avr\\cores\\arduino\\Stream.h"