	.file	"wiring_pulse.c"
__SP_H__ = 0x3e
__SP_L__ = 0x3d
__SREG__ = 0x3f
__tmp_reg__ = 0
__zero_reg__ = 1
	.text
.Ltext0:
	.cfi_sections	.debug_frame
	.section	.text.pulseIn,"ax",@progbits
.global	pulseIn
	.type	pulseIn, @function
pulseIn:
.LFB8:
	.file 1 "D:\\Downloads\\arduino-PR-beta1.9-BUILD-119\\hardware\\arduino\\avr\\cores\\arduino\\wiring_pulse.c"
	.loc 1 34 0
	.cfi_startproc
.LVL0:
	push r16
.LCFI0:
	.cfi_def_cfa_offset 3
	.cfi_offset 16, -2
	push r17
.LCFI1:
	.cfi_def_cfa_offset 4
	.cfi_offset 17, -3
/* prologue: function */
/* frame size = 0 */
/* stack size = 2 */
.L__stack_usage = 2
.LBB2:
	.loc 1 38 0
	ldi r25,0
.LVL1:
	movw r30,r24
	subi r30,lo8(-(digital_pin_to_bit_mask_PGM))
	sbci r31,hi8(-(digital_pin_to_bit_mask_PGM))
.LVL2:
	.loc 1 38 0
/* #APP */
 ;  38 "D:\Downloads\arduino-PR-beta1.9-BUILD-119\hardware\arduino\avr\cores\arduino\wiring_pulse.c" 1
	lpm r23, Z
	
 ;  0 "" 2
.LVL3:
/* #NOAPP */
.LBE2:
.LBB3:
	.loc 1 39 0
	movw r30,r24
.LVL4:
	subi r30,lo8(-(digital_pin_to_port_PGM))
	sbci r31,hi8(-(digital_pin_to_port_PGM))
.LVL5:
	.loc 1 39 0
/* #APP */
 ;  39 "D:\Downloads\arduino-PR-beta1.9-BUILD-119\hardware\arduino\avr\cores\arduino\wiring_pulse.c" 1
	lpm r30, Z
	
 ;  0 "" 2
.LVL6:
/* #NOAPP */
.LBE3:
	.loc 1 40 0
	cpse r22,__zero_reg__
	mov r22,r23
.LVL7:
.L2:
.LBB4:
	.loc 1 46 0 discriminator 4
	ldi r31,0
	lsl r30
	rol r31
.LVL8:
	subi r30,lo8(-(port_to_input_PGM))
	sbci r31,hi8(-(port_to_input_PGM))
.LVL9:
	.loc 1 46 0 discriminator 4
/* #APP */
 ;  46 "D:\Downloads\arduino-PR-beta1.9-BUILD-119\hardware\arduino\avr\cores\arduino\wiring_pulse.c" 1
	lpm r24, Z+
	lpm r25, Z
	
 ;  0 "" 2
.LVL10:
/* #NOAPP */
.LBE4:
	.loc 1 44 0 discriminator 4
	movw r16,r18
	movw r18,r20
.LVL11:
	andi r19,15
	.loc 1 46 0 discriminator 4
	mov r20,r22
	mov r22,r23
.LVL12:
	call countPulseASM
.LVL13:
	.loc 1 49 0 discriminator 4
	cp r22,__zero_reg__
	cpc r23,__zero_reg__
	cpc r24,__zero_reg__
	cpc r25,__zero_reg__
	breq .L1
	.loc 1 50 0
	subi r22,-1
	sbci r23,-1
	sbci r24,-1
	sbci r25,-1
.LVL14:
	andi r25,15
.LVL15:
.L1:
/* epilogue start */
	.loc 1 53 0
	pop r17
	pop r16
	ret
	.cfi_endproc
.LFE8:
	.size	pulseIn, .-pulseIn
	.section	.text.pulseInLong,"ax",@progbits
.global	pulseInLong
	.type	pulseInLong, @function
pulseInLong:
.LFB9:
	.loc 1 64 0
	.cfi_startproc
.LVL16:
	push r4
.LCFI2:
	.cfi_def_cfa_offset 3
	.cfi_offset 4, -2
	push r5
.LCFI3:
	.cfi_def_cfa_offset 4
	.cfi_offset 5, -3
	push r6
.LCFI4:
	.cfi_def_cfa_offset 5
	.cfi_offset 6, -4
	push r7
.LCFI5:
	.cfi_def_cfa_offset 6
	.cfi_offset 7, -5
	push r8
.LCFI6:
	.cfi_def_cfa_offset 7
	.cfi_offset 8, -6
	push r9
.LCFI7:
	.cfi_def_cfa_offset 8
	.cfi_offset 9, -7
	push r10
.LCFI8:
	.cfi_def_cfa_offset 9
	.cfi_offset 10, -8
	push r11
.LCFI9:
	.cfi_def_cfa_offset 10
	.cfi_offset 11, -9
	push r12
.LCFI10:
	.cfi_def_cfa_offset 11
	.cfi_offset 12, -10
	push r13
.LCFI11:
	.cfi_def_cfa_offset 12
	.cfi_offset 13, -11
	push r14
.LCFI12:
	.cfi_def_cfa_offset 13
	.cfi_offset 14, -12
	push r15
.LCFI13:
	.cfi_def_cfa_offset 14
	.cfi_offset 15, -13
	push r16
.LCFI14:
	.cfi_def_cfa_offset 15
	.cfi_offset 16, -14
	push r17
.LCFI15:
	.cfi_def_cfa_offset 16
	.cfi_offset 17, -15
	push r28
.LCFI16:
	.cfi_def_cfa_offset 17
	.cfi_offset 28, -16
	push r29
.LCFI17:
	.cfi_def_cfa_offset 18
	.cfi_offset 29, -17
/* prologue: function */
/* frame size = 0 */
/* stack size = 16 */
.L__stack_usage = 16
	mov r7,r22
	movw r8,r18
	movw r10,r20
.LBB5:
	.loc 1 68 0
	ldi r25,0
.LVL17:
	movw r30,r24
	subi r30,lo8(-(digital_pin_to_bit_mask_PGM))
	sbci r31,hi8(-(digital_pin_to_bit_mask_PGM))
.LVL18:
	.loc 1 68 0
/* #APP */
 ;  68 "D:\Downloads\arduino-PR-beta1.9-BUILD-119\hardware\arduino\avr\cores\arduino\wiring_pulse.c" 1
	lpm r17, Z
	
 ;  0 "" 2
.LVL19:
/* #NOAPP */
.LBE5:
.LBB6:
	.loc 1 69 0
	subi r24,lo8(-(digital_pin_to_port_PGM))
	sbci r25,hi8(-(digital_pin_to_port_PGM))
.LVL20:
	.loc 1 69 0
	movw r30,r24
.LVL21:
/* #APP */
 ;  69 "D:\Downloads\arduino-PR-beta1.9-BUILD-119\hardware\arduino\avr\cores\arduino\wiring_pulse.c" 1
	lpm r28, Z
	
 ;  0 "" 2
.LVL22:
/* #NOAPP */
.LBE6:
	.loc 1 70 0
	cpse r22,__zero_reg__
	mov r7,r17
.L9:
.LVL23:
	.loc 1 72 0 discriminator 4
	call micros
.LVL24:
	movw r12,r22
	movw r14,r24
.LVL25:
.LBB7:
	.loc 1 75 0 discriminator 4
	ldi r29,0
	lsl r28
	rol r29
.LVL26:
	subi r28,lo8(-(port_to_input_PGM))
	sbci r29,hi8(-(port_to_input_PGM))
.L10:
.LVL27:
	.loc 1 75 0
	movw r30,r28
/* #APP */
 ;  75 "D:\Downloads\arduino-PR-beta1.9-BUILD-119\hardware\arduino\avr\cores\arduino\wiring_pulse.c" 1
	lpm r26, Z+
	lpm r27, Z
	
 ;  0 "" 2
.LVL28:
/* #NOAPP */
.LBE7:
	.loc 1 75 0
	ld r24,X
	.loc 1 75 0
	and r24,r17
	.loc 1 75 0
	cp r24,r7
	breq .L12
.LVL29:
.L13:
.LBB8:
	.loc 1 81 0
	movw r30,r28
/* #APP */
 ;  81 "D:\Downloads\arduino-PR-beta1.9-BUILD-119\hardware\arduino\avr\cores\arduino\wiring_pulse.c" 1
	lpm r26, Z+
	lpm r27, Z
	
 ;  0 "" 2
.LVL30:
/* #NOAPP */
.LBE8:
	.loc 1 81 0
	ld r16,X
	.loc 1 81 0
	and r16,r17
	.loc 1 81 0
	cpse r16,r7
	rjmp .L15
	.loc 1 86 0
	call micros
.LVL31:
	movw r4,r22
	movw r6,r24
.LVL32:
.L16:
.LBB9:
	.loc 1 88 0
	movw r30,r28
/* #APP */
 ;  88 "D:\Downloads\arduino-PR-beta1.9-BUILD-119\hardware\arduino\avr\cores\arduino\wiring_pulse.c" 1
	lpm r26, Z+
	lpm r27, Z
	
 ;  0 "" 2
.LVL33:
/* #NOAPP */
.LBE9:
	.loc 1 88 0
	ld r24,X
	.loc 1 88 0
	and r24,r17
	.loc 1 88 0
	cp r16,r24
	breq .L17
	.loc 1 92 0
	call micros
.LVL34:
	sub r22,r4
	sbc r23,r5
	sbc r24,r6
	sbc r25,r7
	rjmp .L8
.LVL35:
.L12:
	.loc 1 76 0
	call micros
.LVL36:
	sub r22,r12
	sbc r23,r13
	sbc r24,r14
	sbc r25,r15
	cp r8,r22
	cpc r9,r23
	cpc r10,r24
	cpc r11,r25
	brsh .L10
.L14:
	.loc 1 77 0
	ldi r22,0
	ldi r23,0
	movw r24,r22
.L8:
/* epilogue start */
	.loc 1 93 0
	pop r29
	pop r28
	pop r17
.LVL37:
	pop r16
	pop r15
	pop r14
	pop r13
	pop r12
.LVL38:
	pop r11
	pop r10
	pop r9
	pop r8
	pop r7
.LVL39:
	pop r6
	pop r5
	pop r4
	ret
.LVL40:
.L15:
	.loc 1 82 0
	call micros
.LVL41:
	sub r22,r12
	sbc r23,r13
	sbc r24,r14
	sbc r25,r15
	cp r8,r22
	cpc r9,r23
	cpc r10,r24
	cpc r11,r25
	brlo .+2
	rjmp .L13
	rjmp .L14
.LVL42:
.L17:
	.loc 1 89 0
	call micros
.LVL43:
	sub r22,r12
	sbc r23,r13
	sbc r24,r14
	sbc r25,r15
	cp r8,r22
	cpc r9,r23
	cpc r10,r24
	cpc r11,r25
	brlo .+2
	rjmp .L16
	rjmp .L14
	.cfi_endproc
.LFE9:
	.size	pulseInLong, .-pulseInLong
	.text
.Letext0:
	.file 2 "d:\\downloads\\arduino-pr-beta1.9-build-119\\hardware\\tools\\avr\\avr\\include\\stdint.h"
	.file 3 "d:\\downloads\\arduino-pr-beta1.9-build-119\\hardware\\tools\\avr\\lib\\gcc\\avr\\7.3.0\\include\\stddef.h"
	.file 4 "d:\\downloads\\arduino-pr-beta1.9-build-119\\hardware\\tools\\avr\\avr\\include\\stdio.h"
	.file 5 "d:\\downloads\\arduino-pr-beta1.9-build-119\\hardware\\tools\\avr\\avr\\include\\stdlib.h"
	.file 6 "D:\\Downloads\\arduino-PR-beta1.9-BUILD-119\\hardware\\arduino\\avr\\cores\\arduino\\Arduino.h"
	.file 7 "D:\\Downloads\\arduino-PR-beta1.9-BUILD-119/hardware/arduino/avr/variants/standard/pins_arduino.h"
	.file 8 "D:\\Downloads\\arduino-PR-beta1.9-BUILD-119\\hardware\\arduino\\avr\\cores\\arduino\\wiring_private.h"