	.file	"WMath.cpp"
__SP_H__ = 0x3e
__SP_L__ = 0x3d
__SREG__ = 0x3f
__tmp_reg__ = 0
__zero_reg__ = 1
	.text
.Ltext0:
	.cfi_sections	.debug_frame
	.section	.text._Z10randomSeedm,"ax",@progbits
.global	_Z10randomSeedm
	.type	_Z10randomSeedm, @function
_Z10randomSeedm:
.LFB4:
	.file 1 "D:\\Downloads\\arduino-PR-beta1.9-BUILD-119\\hardware\\arduino\\avr\\cores\\arduino\\WMath.cpp"
	.loc 1 29 0
	.cfi_startproc
.LVL0:
/* prologue: function */
/* frame size = 0 */
/* stack size = 0 */
.L__stack_usage = 0
	.loc 1 30 0
	cp r22,__zero_reg__
	cpc r23,__zero_reg__
	cpc r24,__zero_reg__
	cpc r25,__zero_reg__
	breq .L1
	.loc 1 31 0
	jmp srandom
.LVL1:
.L1:
/* epilogue start */
	.loc 1 33 0
	ret
	.cfi_endproc
.LFE4:
	.size	_Z10randomSeedm, .-_Z10randomSeedm
	.section	.text._Z6randoml,"ax",@progbits
.global	_Z6randoml
	.type	_Z6randoml, @function
_Z6randoml:
.LFB5:
	.loc 1 36 0
	.cfi_startproc
.LVL2:
	push r12
.LCFI0:
	.cfi_def_cfa_offset 3
	.cfi_offset 12, -2
	push r13
.LCFI1:
	.cfi_def_cfa_offset 4
	.cfi_offset 13, -3
	push r14
.LCFI2:
	.cfi_def_cfa_offset 5
	.cfi_offset 14, -4
	push r15
.LCFI3:
	.cfi_def_cfa_offset 6
	.cfi_offset 15, -5
/* prologue: function */
/* frame size = 0 */
/* stack size = 4 */
.L__stack_usage = 4
	movw r12,r22
	movw r14,r24
	.loc 1 37 0
	cp r12,__zero_reg__
	cpc r13,__zero_reg__
	cpc r14,__zero_reg__
	cpc r15,__zero_reg__
	breq .L4
	.loc 1 40 0
	call random
.LVL3:
	movw r20,r14
	movw r18,r12
	call __divmodsi4
	movw r12,r22
	movw r14,r24
.L4:
	.loc 1 41 0
	movw r24,r14
	movw r22,r12
/* epilogue start */
	pop r15
	pop r14
	pop r13
	pop r12
	ret
	.cfi_endproc
.LFE5:
	.size	_Z6randoml, .-_Z6randoml
	.section	.text._Z6randomll,"ax",@progbits
.global	_Z6randomll
	.type	_Z6randomll, @function
_Z6randomll:
.LFB6:
	.loc 1 44 0
	.cfi_startproc
.LVL4:
	push r12
.LCFI4:
	.cfi_def_cfa_offset 3
	.cfi_offset 12, -2
	push r13
.LCFI5:
	.cfi_def_cfa_offset 4
	.cfi_offset 13, -3
	push r14
.LCFI6:
	.cfi_def_cfa_offset 5
	.cfi_offset 14, -4
	push r15
.LCFI7:
	.cfi_def_cfa_offset 6
	.cfi_offset 15, -5
/* prologue: function */
/* frame size = 0 */
/* stack size = 4 */
.L__stack_usage = 4
	movw r12,r22
	movw r14,r24
	.loc 1 45 0
	cp r12,r18
	cpc r13,r19
	cpc r14,r20
	cpc r15,r21
	brge .L9
.LVL5:
	.loc 1 48 0
	movw r24,r20
	movw r22,r18
.LVL6:
	sub r22,r12
	sbc r23,r13
	sbc r24,r14
	sbc r25,r15
	.loc 1 49 0
	call _Z6randoml
.LVL7:
	add r12,r22
	adc r13,r23
	adc r14,r24
	adc r15,r25
.LVL8:
.L9:
	.loc 1 50 0
	movw r24,r14
	movw r22,r12
/* epilogue start */
	pop r15
	pop r14
	pop r13
	pop r12
	ret
	.cfi_endproc
.LFE6:
	.size	_Z6randomll, .-_Z6randomll
	.section	.text._Z3maplllll,"ax",@progbits
.global	_Z3maplllll
	.type	_Z3maplllll, @function
_Z3maplllll:
.LFB7:
	.loc 1 53 0
	.cfi_startproc
.LVL9:
	push r4
.LCFI8:
	.cfi_def_cfa_offset 3
	.cfi_offset 4, -2
	push r5
.LCFI9:
	.cfi_def_cfa_offset 4
	.cfi_offset 5, -3
	push r6
.LCFI10:
	.cfi_def_cfa_offset 5
	.cfi_offset 6, -4
	push r7
.LCFI11:
	.cfi_def_cfa_offset 6
	.cfi_offset 7, -5
	push r10
.LCFI12:
	.cfi_def_cfa_offset 7
	.cfi_offset 10, -6
	push r11
.LCFI13:
	.cfi_def_cfa_offset 8
	.cfi_offset 11, -7
	push r12
.LCFI14:
	.cfi_def_cfa_offset 9
	.cfi_offset 12, -8
	push r13
.LCFI15:
	.cfi_def_cfa_offset 10
	.cfi_offset 13, -9
	push r14
.LCFI16:
	.cfi_def_cfa_offset 11
	.cfi_offset 14, -10
	push r15
.LCFI17:
	.cfi_def_cfa_offset 12
	.cfi_offset 15, -11
	push r16
.LCFI18:
	.cfi_def_cfa_offset 13
	.cfi_offset 16, -12
	push r17
.LCFI19:
	.cfi_def_cfa_offset 14
	.cfi_offset 17, -13
	push r28
.LCFI20:
	.cfi_def_cfa_offset 15
	.cfi_offset 28, -14
	push r29
.LCFI21:
	.cfi_def_cfa_offset 16
	.cfi_offset 29, -15
	in r28,__SP_L__
	in r29,__SP_H__
.LCFI22:
	.cfi_def_cfa_register 28
/* prologue: function */
/* frame size = 0 */
/* stack size = 14 */
.L__stack_usage = 14
	movw r4,r18
	movw r6,r20
	.loc 1 54 0
	movw r18,r22
.LVL10:
	movw r20,r24
	sub r18,r4
	sbc r19,r5
	sbc r20,r6
	sbc r21,r7
	ldd r24,Y+17
	ldd r25,Y+18
	ldd r26,Y+19
	ldd r27,Y+20
	movw r22,r24
.LVL11:
	movw r24,r26
	sub r22,r10
	sbc r23,r11
	sbc r24,r12
	sbc r25,r13
	call __mulsi3
	movw r20,r16
	movw r18,r14
	sub r18,r4
	sbc r19,r5
	sbc r20,r6
	sbc r21,r7
	call __divmodsi4
	movw r24,r20
	movw r22,r18
	add r22,r10
	adc r23,r11
	adc r24,r12
	adc r25,r13
/* epilogue start */
	.loc 1 55 0
	pop r29
	pop r28
	pop r17
	pop r16
	pop r15
	pop r14
.LVL12:
	pop r13
	pop r12
	pop r11
	pop r10
.LVL13:
	pop r7
	pop r6
	pop r5
	pop r4
	ret
	.cfi_endproc
.LFE7:
	.size	_Z3maplllll, .-_Z3maplllll
	.section	.text._Z8makeWordj,"ax",@progbits
.global	_Z8makeWordj
	.type	_Z8makeWordj, @function
_Z8makeWordj:
.LFB8:
	.loc 1 57 0
	.cfi_startproc
.LVL14:
/* prologue: function */
/* frame size = 0 */
/* stack size = 0 */
.L__stack_usage = 0
/* epilogue start */
	.loc 1 57 0
	ret
	.cfi_endproc
.LFE8:
	.size	_Z8makeWordj, .-_Z8makeWordj
	.section	.text._Z8makeWordhh,"ax",@progbits
.global	_Z8makeWordhh
	.type	_Z8makeWordhh, @function
_Z8makeWordhh:
.LFB9:
	.loc 1 58 0
	.cfi_startproc
.LVL15:
/* prologue: function */
/* frame size = 0 */
/* stack size = 0 */
.L__stack_usage = 0
	.loc 1 58 0
	mov r25,r24
	mov r24,r22
.LVL16:
/* epilogue start */
	ret
	.cfi_endproc
.LFE9:
	.size	_Z8makeWordhh, .-_Z8makeWordhh
	.text
.Letext0:
	.file 2 "d:\\downloads\\arduino-pr-beta1.9-build-119\\hardware\\tools\\avr\\avr\\include\\stdlib.h"
	.file 3 "d:\\downloads\\arduino-pr-beta1.9-build-119\\hardware\\tools\\avr\\lib\\gcc\\avr\\7.3.0\\include\\stddef.h"