	.file	"ee_oo_api_osek.c"
__SP_H__ = 0x3e
__SP_L__ = 0x3d
__SREG__ = 0x3f
__tmp_reg__ = 0
__zero_reg__ = 1
	.text
.Ltext0:
	.cfi_sections	.debug_frame
	.section	.text.osEE_check_disableint,"ax",@progbits
	.type	osEE_check_disableint, @function
osEE_check_disableint:
.LFB42:
	.file 1 "C:\\Users\\gabri\\OneDrive\\Desktop\\OS4ES_~1\\lab1.1\\erika\\src\\ee_kernel.h"
	.loc 1 302 0
	.cfi_startproc
.LVL0:
/* prologue: function */
/* frame size = 0 */
/* stack size = 0 */
.L__stack_usage = 0
	movw r30,r24
	.loc 1 303 0
	ldd r24,Z+15
.LVL1:
	cpse r24,__zero_reg__
	rjmp .L5
	.loc 1 303 0 is_stmt 0 discriminator 2
	ldd r24,Z+16
	cpse r24,__zero_reg__
	rjmp .L5
	.loc 1 303 0 discriminator 4
	ldi r18,lo8(1)
	ldi r25,0
	ldd r24,Z+17
	cpse r24,__zero_reg__
	rjmp .L3
	ldi r18,0
.L3:
	mov r24,r18
	ret
.L5:
	.loc 1 303 0
	ldi r24,lo8(1)
	ldi r25,0
/* epilogue start */
	.loc 1 305 0 is_stmt 1
	ret
	.cfi_endproc
.LFE42:
	.size	osEE_check_disableint, .-osEE_check_disableint
	.section	.text.DisableAllInterrupts,"ax",@progbits
.global	DisableAllInterrupts
	.type	DisableAllInterrupts, @function
DisableAllInterrupts:
.LFB65:
	.file 2 "C:\\Users\\gabri\\OneDrive\\Desktop\\OS4ES_~1\\lab1.1\\erika\\src\\ee_oo_api_osek.c"
	.loc 2 64 0
	.cfi_startproc
/* prologue: function */
/* frame size = 0 */
/* stack size = 0 */
.L__stack_usage = 0
	.loc 2 66 0
	lds r30,osEE_cdb_var
	lds r31,osEE_cdb_var+1
.LBB645:
.LBB646:
	.file 3 "C:\\Users\\gabri\\OneDrive\\Desktop\\OS4ES_~1\\lab1.1\\erika\\src\\ee_hal_internal.h"
	.loc 3 105 0
/* #APP */
 ;  105 "C:\Users\gabri\OneDrive\Desktop\OS4ES_~1\lab1.1\erika\src\ee_hal_internal.h" 1
	cli
 ;  0 "" 2
.LVL2:
/* #NOAPP */
.LBE646:
.LBE645:
	.loc 2 73 0
	ldi r24,lo8(1)
	std Z+17,r24
.LVL3:
/* epilogue start */
	.loc 2 76 0
	ret
	.cfi_endproc
.LFE65:
	.size	DisableAllInterrupts, .-DisableAllInterrupts
	.section	.text.EnableAllInterrupts,"ax",@progbits
.global	EnableAllInterrupts
	.type	EnableAllInterrupts, @function
EnableAllInterrupts:
.LFB66:
	.loc 2 83 0
	.cfi_startproc
/* prologue: function */
/* frame size = 0 */
/* stack size = 0 */
.L__stack_usage = 0
	.loc 2 90 0
	lds r30,osEE_cdb_var
	lds r31,osEE_cdb_var+1
.LVL4:
	.loc 2 96 0
	ldd r24,Z+17
	tst r24
	breq .L7
	.loc 2 97 0
	std Z+17,__zero_reg__
.LBB647:
.LBB648:
	.loc 3 110 0
/* #APP */
 ;  110 "C:\Users\gabri\OneDrive\Desktop\OS4ES_~1\lab1.1\erika\src\ee_hal_internal.h" 1
	sei
 ;  0 "" 2
.LVL5:
/* #NOAPP */
.L7:
/* epilogue start */
.LBE648:
.LBE647:
	.loc 2 104 0
	ret
	.cfi_endproc
.LFE66:
	.size	EnableAllInterrupts, .-EnableAllInterrupts
	.section	.text.SuspendAllInterrupts,"ax",@progbits
.global	SuspendAllInterrupts
	.type	SuspendAllInterrupts, @function
SuspendAllInterrupts:
.LFB68:
	.loc 2 133 0
	.cfi_startproc
/* prologue: function */
/* frame size = 0 */
/* stack size = 0 */
.L__stack_usage = 0
	.loc 2 135 0
	lds r30,osEE_cdb_var
	lds r31,osEE_cdb_var+1
.LVL6:
.LBB661:
.LBB662:
	.loc 2 113 0
	ldd r24,Z+15
	cpse r24,__zero_reg__
	rjmp .L13
.LBB663:
.LBB664:
.LBB665:
	.loc 3 116 0
	in r24,__SREG__
.LVL7:
.LBB666:
.LBB667:
	.loc 3 105 0
/* #APP */
 ;  105 "C:\Users\gabri\OneDrive\Desktop\OS4ES_~1\lab1.1\erika\src\ee_hal_internal.h" 1
	cli
 ;  0 "" 2
.LVL8:
/* #NOAPP */
.LBE667:
.LBE666:
.LBE665:
.LBE664:
	.loc 2 115 0
	std Z+13,r24
	.loc 2 116 0
	ldd r24,Z+15
.L17:
.LBE663:
	.loc 2 118 0
	subi r24,lo8(-(1))
	std Z+15,r24
/* epilogue start */
.LBE662:
.LBE661:
	.loc 2 146 0
	ret
.L13:
.LBB673:
.LBB672:
	.loc 2 117 0
	cpi r24,lo8(-1)
	brne .L17
.LVL9:
.LBB668:
.LBB669:
	.loc 1 694 0
	ldi r24,lo8(3)
	ldi r25,0
	std Z+9,r25
	std Z+8,r24
	.loc 1 696 0
	ldi r24,lo8(25)
	ldi r25,0
	std Z+12,r25
	std Z+11,r24
.LBB670:
.LBB671:
	.loc 3 105 0
/* #APP */
 ;  105 "C:\Users\gabri\OneDrive\Desktop\OS4ES_~1\lab1.1\erika\src\ee_hal_internal.h" 1
	cli
 ;  0 "" 2
/* #NOAPP */
.L16:
	rjmp .L16
.LBE671:
.LBE670:
.LBE669:
.LBE668:
.LBE672:
.LBE673:
	.cfi_endproc
.LFE68:
	.size	SuspendAllInterrupts, .-SuspendAllInterrupts
	.section	.text.ResumeAllInterrupts,"ax",@progbits
.global	ResumeAllInterrupts
	.type	ResumeAllInterrupts, @function
ResumeAllInterrupts:
.LFB69:
	.loc 2 153 0
	.cfi_startproc
/* prologue: function */
/* frame size = 0 */
/* stack size = 0 */
.L__stack_usage = 0
	.loc 2 155 0
	lds r30,osEE_cdb_var
	lds r31,osEE_cdb_var+1
.LVL10:
	.loc 2 161 0
	ldd r24,Z+15
	tst r24
	breq .L18
	.loc 2 162 0
	subi r24,lo8(-(-1))
	std Z+15,r24
	.loc 2 164 0
	cpse r24,__zero_reg__
	rjmp .L18
	.loc 2 165 0
	ldd r24,Z+13
.LVL11:
.LBB674:
.LBB675:
	.loc 3 123 0
	.loc 3 124 0
	out __SREG__,r24
.LVL12:
.L18:
/* epilogue start */
.LBE675:
.LBE674:
	.loc 2 172 0
	ret
	.cfi_endproc
.LFE69:
	.size	ResumeAllInterrupts, .-ResumeAllInterrupts
	.section	.text.SuspendOSInterrupts,"ax",@progbits
.global	SuspendOSInterrupts
	.type	SuspendOSInterrupts, @function
SuspendOSInterrupts:
.LFB70:
	.loc 2 179 0
	.cfi_startproc
/* prologue: function */
/* frame size = 0 */
/* stack size = 0 */
.L__stack_usage = 0
	.loc 2 181 0
	lds r30,osEE_cdb_var
	lds r31,osEE_cdb_var+1
.LVL13:
	.loc 2 187 0
	ldd r24,Z+16
	cpse r24,__zero_reg__
	rjmp .L23
.LBB676:
.LBB677:
.LBB678:
.LBB679:
	.loc 3 116 0
	in r24,__SREG__
.LVL14:
.LBB680:
.LBB681:
	.loc 3 105 0
/* #APP */
 ;  105 "C:\Users\gabri\OneDrive\Desktop\OS4ES_~1\lab1.1\erika\src\ee_hal_internal.h" 1
	cli
 ;  0 "" 2
.LVL15:
/* #NOAPP */
.LBE681:
.LBE680:
.LBE679:
.LBE678:
.LBE677:
	.loc 2 189 0
	std Z+14,r24
	.loc 2 190 0
	ldd r24,Z+16
.L27:
.LBE676:
	.loc 2 192 0
	subi r24,lo8(-(1))
	std Z+16,r24
/* epilogue start */
	.loc 2 204 0
	ret
.L23:
	.loc 2 191 0
	cpi r24,lo8(-1)
	brne .L27
.LVL16:
.LBB682:
.LBB683:
	.loc 1 694 0
	ldi r24,lo8(3)
	ldi r25,0
	std Z+9,r25
	std Z+8,r24
	.loc 1 696 0
	ldi r24,lo8(25)
	ldi r25,0
	std Z+12,r25
	std Z+11,r24
.LBB684:
.LBB685:
	.loc 3 105 0
/* #APP */
 ;  105 "C:\Users\gabri\OneDrive\Desktop\OS4ES_~1\lab1.1\erika\src\ee_hal_internal.h" 1
	cli
 ;  0 "" 2
/* #NOAPP */
.L26:
	rjmp .L26
.LBE685:
.LBE684:
.LBE683:
.LBE682:
	.cfi_endproc
.LFE70:
	.size	SuspendOSInterrupts, .-SuspendOSInterrupts
	.section	.text.ResumeOSInterrupts,"ax",@progbits
.global	ResumeOSInterrupts
	.type	ResumeOSInterrupts, @function
ResumeOSInterrupts:
.LFB71:
	.loc 2 211 0
	.cfi_startproc
/* prologue: function */
/* frame size = 0 */
/* stack size = 0 */
.L__stack_usage = 0
	.loc 2 213 0
	lds r30,osEE_cdb_var
	lds r31,osEE_cdb_var+1
.LVL17:
	.loc 2 219 0
	ldd r24,Z+16
	tst r24
	breq .L28
	.loc 2 220 0
	subi r24,lo8(-(-1))
	std Z+16,r24
	.loc 2 222 0
	cpse r24,__zero_reg__
	rjmp .L28
	.loc 2 223 0
	ldd r24,Z+14
.LVL18:
.LBB686:
.LBB687:
.LBB688:
	.loc 3 123 0
	.loc 3 124 0
	out __SREG__,r24
.LVL19:
.L28:
/* epilogue start */
.LBE688:
.LBE687:
.LBE686:
	.loc 2 230 0
	ret
	.cfi_endproc
.LFE71:
	.size	ResumeOSInterrupts, .-ResumeOSInterrupts
	.section	.text.StartOS,"ax",@progbits
.global	StartOS
	.type	StartOS, @function
StartOS:
.LFB72:
	.loc 2 237 0
	.cfi_startproc
.LVL20:
	push r4
.LCFI0:
	.cfi_def_cfa_offset 3
	.cfi_offset 4, -2
	push r5
.LCFI1:
	.cfi_def_cfa_offset 4
	.cfi_offset 5, -3
	push r6
.LCFI2:
	.cfi_def_cfa_offset 5
	.cfi_offset 6, -4
	push r7
.LCFI3:
	.cfi_def_cfa_offset 6
	.cfi_offset 7, -5
	push r8
.LCFI4:
	.cfi_def_cfa_offset 7
	.cfi_offset 8, -6
	push r9
.LCFI5:
	.cfi_def_cfa_offset 8
	.cfi_offset 9, -7
	push r10
.LCFI6:
	.cfi_def_cfa_offset 9
	.cfi_offset 10, -8
	push r11
.LCFI7:
	.cfi_def_cfa_offset 10
	.cfi_offset 11, -9
	push r12
.LCFI8:
	.cfi_def_cfa_offset 11
	.cfi_offset 12, -10
	push r13
.LCFI9:
	.cfi_def_cfa_offset 12
	.cfi_offset 13, -11
	push r14
.LCFI10:
	.cfi_def_cfa_offset 13
	.cfi_offset 14, -12
	push r15
.LCFI11:
	.cfi_def_cfa_offset 14
	.cfi_offset 15, -13
	push r16
.LCFI12:
	.cfi_def_cfa_offset 15
	.cfi_offset 16, -14
	push r17
.LCFI13:
	.cfi_def_cfa_offset 16
	.cfi_offset 17, -15
	push r28
.LCFI14:
	.cfi_def_cfa_offset 17
	.cfi_offset 28, -16
	push r29
.LCFI15:
	.cfi_def_cfa_offset 18
	.cfi_offset 29, -17
	rcall .
.LCFI16:
	.cfi_def_cfa_offset 20
	in r28,__SP_L__
	in r29,__SP_H__
.LCFI17:
	.cfi_def_cfa_register 28
/* prologue: function */
/* frame size = 2 */
/* stack size = 18 */
.L__stack_usage = 18
.LVL21:
	.loc 2 246 0
	lds r16,osEE_cdb_var
	lds r17,osEE_cdb_var+1
.LVL22:
.LBB712:
.LBB713:
.LBB714:
.LBB715:
	.loc 3 116 0
	in r25,__SREG__
.LVL23:
.LBB716:
.LBB717:
	.loc 3 105 0
/* #APP */
 ;  105 "C:\Users\gabri\OneDrive\Desktop\OS4ES_~1\lab1.1\erika\src\ee_hal_internal.h" 1
	cli
 ;  0 "" 2
.LVL24:
/* #NOAPP */
.LBE717:
.LBE716:
.LBE715:
.LBE714:
.LBE713:
.LBE712:
	.loc 2 254 0
	movw r26,r16
	adiw r26,8
	ld r18,X+
	ld r19,X
	or r18,r19
	breq .L33
.LVL25:
.LBB718:
.LBB719:
.LBB720:
.LBB721:
	.loc 3 123 0
	.loc 3 124 0
	out __SREG__,r25
.LVL26:
.LBE721:
.LBE720:
.LBE719:
.LBE718:
	.loc 2 258 0
	ldi r24,lo8(1)
	ldi r25,0
.LVL27:
.L32:
/* epilogue start */
	.loc 2 582 0
	pop __tmp_reg__
	pop __tmp_reg__
	pop r29
	pop r28
	pop r17
	pop r16
	pop r15
	pop r14
	pop r13
	pop r12
	pop r11
	pop r10
	pop r9
	pop r8
	pop r7
	pop r6
	pop r5
	pop r4
	ret
.LVL28:
.L33:
	mov r14,r24
.LBB722:
.LBB723:
	.loc 3 173 0
	ldi r24,lo8(gs(osEE_atmega_intvect))
	ldi r25,hi8(gs(osEE_atmega_intvect))
.LVL29:
	std Y+2,r25
	std Y+1,r24
	.loc 3 177 0
	call osEE_avr8_system_timer_init
.LVL30:
.LBE723:
.LBE722:
.LBB724:
	.loc 2 280 0
	lds r12,osEE_cdb_var+4
	lds r13,osEE_cdb_var+4+1
.LVL31:
	.loc 2 300 0
	ldi r24,lo8(1)
	ldi r25,0
	movw r30,r16
	std Z+9,r25
	std Z+8,r24
	.loc 2 301 0
	std Z+10,r14
.LVL32:
.LBB725:
.LBB726:
	.loc 1 331 0
	call StartupHook
.LVL33:
.LBE726:
.LBE725:
.LBB727:
	.loc 2 402 0
	lds r6,osEE_cdb_var+12
	lds r7,osEE_cdb_var+12+1
.LVL34:
	.loc 2 410 0
	ldi r31,lo8(4)
	mul r14,r31
	movw r14,r0
	clr __zero_reg__
.LVL35:
	add r6,r14
	adc r7,r15
	movw r26,r6
	adiw r26,2
	ld r8,X+
	ld r9,X
.LVL36:
	.loc 2 411 0
	mov r11,__zero_reg__
	mov r10,__zero_reg__
.LBB728:
	.loc 2 415 0
	ldi r20,lo8(6)
	mov r5,r20
.LVL37:
.L35:
.LBE728:
	.loc 2 411 0 discriminator 1
	cp r10,r8
	cpc r11,r9
	brne .L36
.LBE727:
.LBB730:
	.loc 2 468 0
	lds r4,osEE_cdb_var+8
	lds r5,osEE_cdb_var+8+1
.LVL38:
	.loc 2 471 0
	movw r10,r16
.LVL39:
	ldi r30,2
	add r10,r30
	adc r11,__zero_reg__
.LVL40:
	.loc 2 483 0
	add r4,r14
	adc r5,r15
	movw r26,r4
	adiw r26,2
	ld r6,X+
	ld r7,X
.LVL41:
	.loc 2 484 0
	mov r15,__zero_reg__
	mov r14,__zero_reg__
.LBB731:
	.loc 2 492 0
	clr r8
	inc r8
	mov r9,__zero_reg__
.LVL42:
.L37:
.LBE731:
	.loc 2 484 0 discriminator 1
	cp r14,r6
	cpc r15,r7
	brne .L38
.LVL43:
.LBE730:
	.loc 2 527 0
	movw r30,r16
	ldd r24,Z+8
	ldd r25,Z+9
	sbiw r24,1
	brne .L39
	.loc 2 528 0
	ldi r24,lo8(2)
	ldi r25,0
	std Z+9,r25
	std Z+8,r24
.L39:
.LVL44:
	.loc 2 537 0
	movw r26,r16
	adiw r26,8
	ld r24,X+
	ld r25,X
	sbiw r24,2
	brne .L40
.LVL45:
.LBB735:
.LBB736:
	.file 4 "C:\\Users\\gabri\\OneDrive\\Desktop\\OS4ES_~1\\lab1.1\\erika\\src\\ee_std_change_context.h"
	.loc 4 150 0
	movw r30,r12
	ldd r22,Z+2
	ldd r23,Z+3
	movw r20,r22
	movw r24,r12
	call osEE_hal_save_ctx_and_ready2stacked
.LVL46:
.LBE736:
.LBE735:
	.loc 2 539 0
	movw r24,r12
	call osEE_task_end
.LVL47:
.L40:
.LBE724:
	.loc 2 238 0
	ldi r25,0
	ldi r24,0
	.loc 2 581 0
	rjmp .L32
.LVL48:
.L36:
.LBB739:
.LBB737:
.LBB729:
	.loc 2 413 0 discriminator 3
	movw r26,r6
	ld r30,X+
	ld r31,X
.LVL49:
	.loc 2 415 0 discriminator 3
	mul r5,r10
	movw r24,r0
	mul r5,r11
	add r25,r0
	clr __zero_reg__
	add r30,r24
	adc r31,r25
.LVL50:
	ld r26,Z
	ldd r27,Z+1
.LVL51:
	.loc 2 417 0 discriminator 3
	ldd r18,Z+4
	ldd r19,Z+5
	ldd r20,Z+2
	ldd r21,Z+3
	movw r22,r26
	adiw r26,2
	ld r24,X+
	ld r25,X
	call osEE_alarm_set_rel
.LVL52:
.LBE729:
	.loc 2 411 0 discriminator 3
	ldi r27,-1
	sub r10,r27
	sbc r11,r27
.LVL53:
	rjmp .L35
.LVL54:
.L38:
.LBE737:
.LBB738:
.LBB734:
	.loc 2 486 0 discriminator 3
	movw r26,r4
	ld r30,X+
	ld r31,X
	movw r24,r14
	lsl r24
	rol r25
	add r30,r24
	adc r31,r25
	ld r20,Z
	ldd r21,Z+1
.LVL55:
	.loc 2 488 0 discriminator 3
	movw r26,r20
	adiw r26,4
	ld r30,X+
	ld r31,X
.LVL56:
	.loc 2 491 0 discriminator 3
	ld r24,Z
	subi r24,lo8(-(1))
	st Z,r24
	.loc 2 492 0 discriminator 3
	std Z+3,r9
	std Z+2,r8
.LVL57:
.LBB732:
.LBB733:
	.file 5 "C:\\Users\\gabri\\OneDrive\\Desktop\\OS4ES_~1\\lab1.1\\erika\\inc/ee_scheduler_types.h"
	.loc 5 100 0 discriminator 3
	movw r30,r16
.LVL58:
	ldd r22,Z+4
	ldd r23,Z+5
.LVL59:
	.loc 5 101 0 discriminator 3
	movw r26,r22
	ld r24,X+
	ld r25,X
	sbiw r26,1
	std Z+5,r25
	std Z+4,r24
	.loc 5 102 0 discriminator 3
	st X+,__zero_reg__
	st X,__zero_reg__
.LVL60:
.LBE733:
.LBE732:
	.loc 2 494 0 discriminator 3
	movw r24,r10
	call osEE_scheduler_rq_insert
.LVL61:
.LBE734:
	.loc 2 484 0 discriminator 3
	ldi r27,-1
	sub r14,r27
	sbc r15,r27
.LVL62:
	rjmp .L37
.LBE738:
.LBE739:
	.cfi_endproc
.LFE72:
	.size	StartOS, .-StartOS
	.section	.text.GetActiveApplicationMode,"ax",@progbits
.global	GetActiveApplicationMode
	.type	GetActiveApplicationMode, @function
GetActiveApplicationMode:
.LFB73:
	.loc 2 589 0
	.cfi_startproc
/* prologue: function */
/* frame size = 0 */
/* stack size = 0 */
.L__stack_usage = 0
	.loc 2 598 0
	lds r30,osEE_cdb_var
	lds r31,osEE_cdb_var+1
.LVL63:
	.loc 2 604 0
	ldd r24,Z+8
	ldd r25,Z+9
	or r24,r25
	breq .L43
	.loc 2 605 0
	ldd r24,Z+10
.LVL64:
	ret
.LVL65:
.L43:
	.loc 2 607 0
	ldi r24,lo8(-1)
.LVL66:
/* epilogue start */
	.loc 2 613 0
	ret
	.cfi_endproc
.LFE73:
	.size	GetActiveApplicationMode, .-GetActiveApplicationMode
	.section	.text.ActivateTask,"ax",@progbits
.global	ActivateTask
	.type	ActivateTask, @function
ActivateTask:
.LFB74:
	.loc 2 620 0
	.cfi_startproc
.LVL67:
	push r15
.LCFI18:
	.cfi_def_cfa_offset 3
	.cfi_offset 15, -2
	push r16
.LCFI19:
	.cfi_def_cfa_offset 4
	.cfi_offset 16, -3
	push r17
.LCFI20:
	.cfi_def_cfa_offset 5
	.cfi_offset 17, -4
	push r28
.LCFI21:
	.cfi_def_cfa_offset 6
	.cfi_offset 28, -5
	push r29
.LCFI22:
	.cfi_def_cfa_offset 7
	.cfi_offset 29, -6
/* prologue: function */
/* frame size = 0 */
/* stack size = 5 */
.L__stack_usage = 5
.LVL68:
.LBB740:
.LBB741:
	.loc 1 276 0
	ldi r25,0
.LBE741:
.LBE740:
	.loc 2 655 0
	lds r18,osEE_kdb_var+4
	lds r19,osEE_kdb_var+4+1
	cp r24,r18
	cpc r25,r19
	brsh .L48
.LBB742:
	.loc 2 660 0
	lds r18,osEE_kdb_var+2
	lds r19,osEE_kdb_var+2+1
	lsl r24
	rol r25
.LVL69:
	add r24,r18
	adc r25,r19
	movw r30,r24
	ld r16,Z
	ldd r17,Z+1
.LVL70:
	.loc 2 662 0
	movw r30,r16
	ldd r24,Z+7
	ldd r25,Z+8
	sbiw r24,2
	brsh .L48
.LBB743:
.LBB744:
.LBB745:
.LBB746:
.LBB747:
	.loc 3 116 0
	in r15,__SREG__
.LVL71:
.LBB748:
.LBB749:
	.loc 3 105 0
/* #APP */
 ;  105 "C:\Users\gabri\OneDrive\Desktop\OS4ES_~1\lab1.1\erika\src\ee_hal_internal.h" 1
	cli
 ;  0 "" 2
.LVL72:
/* #NOAPP */
.LBE749:
.LBE748:
.LBE747:
.LBE746:
.LBE745:
.LBE744:
	.loc 2 665 0
	movw r24,r16
	call osEE_task_activated
.LVL73:
	movw r28,r24
.LVL74:
	.loc 2 667 0
	or r24,r25
	brne .L46
	.loc 2 668 0
	movw r22,r16
	ldi r24,lo8(osEE_kdb_var)
	ldi r25,hi8(osEE_kdb_var)
.LVL75:
	call osEE_scheduler_task_activated
.LVL76:
.L46:
.LBB750:
.LBB751:
.LBB752:
.LBB753:
	.loc 3 123 0
	.loc 3 124 0
	out __SREG__,r15
.LVL77:
.L44:
.LBE753:
.LBE752:
.LBE751:
.LBE750:
.LBE743:
.LBE742:
	.loc 2 692 0
	movw r24,r28
/* epilogue start */
	pop r29
	pop r28
	pop r17
	pop r16
	pop r15
	ret
.L48:
	.loc 2 656 0
	ldi r28,lo8(3)
	ldi r29,0
.LVL78:
	.loc 2 691 0
	rjmp .L44
	.cfi_endproc
.LFE74:
	.size	ActivateTask, .-ActivateTask
	.section	.text.ChainTask,"ax",@progbits
.global	ChainTask
	.type	ChainTask, @function
ChainTask:
.LFB75:
	.loc 2 699 0
	.cfi_startproc
.LVL79:
	push r15
.LCFI23:
	.cfi_def_cfa_offset 3
	.cfi_offset 15, -2
	push r16
.LCFI24:
	.cfi_def_cfa_offset 4
	.cfi_offset 16, -3
	push r17
.LCFI25:
	.cfi_def_cfa_offset 5
	.cfi_offset 17, -4
	push r28
.LCFI26:
	.cfi_def_cfa_offset 6
	.cfi_offset 28, -5
	push r29
.LCFI27:
	.cfi_def_cfa_offset 7
	.cfi_offset 29, -6
/* prologue: function */
/* frame size = 0 */
/* stack size = 5 */
.L__stack_usage = 5
	.loc 2 711 0
	lds r28,osEE_cdb_var
	lds r29,osEE_cdb_var+1
.LVL80:
	.loc 2 713 0
	ld r30,Y
	ldd r31,Y+1
.LVL81:
	.loc 2 736 0
	ldd r18,Z+7
	ldd r19,Z+8
	cpi r18,2
	cpc r19,__zero_reg__
	brlo .+2
	rjmp .L56
.LVL82:
.LBB754:
.LBB755:
	.loc 1 276 0
	ldi r25,0
.LBE755:
.LBE754:
	.loc 2 745 0
	lds r18,osEE_kdb_var+4
	lds r19,osEE_kdb_var+4+1
	cp r24,r18
	cpc r25,r19
	brlo .+2
	rjmp .L59
.LVL83:
.LBB756:
	.loc 2 754 0
	ldd r26,Z+4
	ldd r27,Z+5
	adiw r26,4
	ld r18,X+
	ld r19,X
	or r18,r19
	breq .+2
	rjmp .L58
	.loc 2 749 0
	lds r18,osEE_kdb_var+2
	lds r19,osEE_kdb_var+2+1
	lsl r24
	rol r25
.LVL84:
	add r24,r18
	adc r25,r19
	movw r26,r24
	ld r16,X+
	ld r17,X
	.loc 2 771 0
	movw r26,r16
	adiw r26,7
	ld r24,X+
	ld r25,X
	sbiw r24,2
	brsh .L59
.LBB757:
	.loc 2 775 0
	ldd r24,Y+15
	tst r24
	breq .L51
	.loc 2 776 0
	std Y+15,__zero_reg__
.LVL85:
	.loc 2 777 0
	ldd r24,Y+13
.LVL86:
.LBB758:
.LBB759:
	.loc 3 123 0
	.loc 3 124 0
	out __SREG__,r24
.LVL87:
.L51:
.LBE759:
.LBE758:
	.loc 2 779 0
	ldd r24,Y+17
	tst r24
	breq .L52
	.loc 2 780 0
	std Y+17,__zero_reg__
.LBB760:
.LBB761:
	.loc 3 110 0
/* #APP */
 ;  110 "C:\Users\gabri\OneDrive\Desktop\OS4ES_~1\lab1.1\erika\src\ee_hal_internal.h" 1
	sei
 ;  0 "" 2
/* #NOAPP */
.L52:
.LBE761:
.LBE760:
.LBB762:
.LBB763:
.LBB764:
.LBB765:
	.loc 3 116 0
	in r15,__SREG__
.LVL88:
.LBB766:
.LBB767:
	.loc 3 105 0
/* #APP */
 ;  105 "C:\Users\gabri\OneDrive\Desktop\OS4ES_~1\lab1.1\erika\src\ee_hal_internal.h" 1
	cli
 ;  0 "" 2
.LVL89:
/* #NOAPP */
.LBE767:
.LBE766:
.LBE765:
.LBE764:
.LBE763:
.LBE762:
	.loc 2 787 0
	cp r30,r16
	cpc r31,r17
	brne .L53
	.loc 2 789 0
	ldd __tmp_reg__,Z+4
	ldd r31,Z+5
	mov r30,__tmp_reg__
.LVL90:
	ldi r24,lo8(5)
	ldi r25,0
	std Z+3,r25
	std Z+2,r24
.LVL91:
.L54:
.LBB768:
.LBB769:
	.loc 4 141 0
	ld r30,Y
	ldd r31,Y+1
	ldi r22,lo8(gs(osEE_scheduler_task_end))
	ldi r23,hi8(gs(osEE_scheduler_task_end))
	ldd r24,Z+2
	ldd r25,Z+3
	call osEE_hal_terminate_ctx
.LVL92:
.L53:
.LBE769:
.LBE768:
	.loc 2 792 0
	movw r24,r16
	call osEE_task_activated
.LVL93:
	.loc 2 793 0
	sbiw r24,0
	brne .L55
	.loc 2 794 0
	movw r22,r16
	ldi r24,lo8(osEE_kdb_var)
	ldi r25,hi8(osEE_kdb_var)
.LVL94:
	call osEE_scheduler_task_insert
.LVL95:
	rjmp .L54
.LVL96:
.L56:
.LBE757:
.LBE756:
	.loc 2 742 0
	ldi r24,lo8(2)
	ldi r25,0
.LVL97:
.L49:
/* epilogue start */
	.loc 2 822 0
	pop r29
	pop r28
	pop r17
	pop r16
	pop r15
	ret
.LVL98:
.L58:
.LBB775:
	.loc 2 763 0
	ldi r24,lo8(6)
	ldi r25,0
.LVL99:
	rjmp .L49
.LVL100:
.L59:
.LBE775:
	.loc 2 746 0
	ldi r24,lo8(3)
	ldi r25,0
.LVL101:
	.loc 2 821 0
	rjmp .L49
.LVL102:
.L55:
.LBB776:
.LBB774:
.LBB770:
.LBB771:
.LBB772:
.LBB773:
	.loc 3 123 0
	.loc 3 124 0
	out __SREG__,r15
.LVL103:
	rjmp .L49
.LBE773:
.LBE772:
.LBE771:
.LBE770:
.LBE774:
.LBE776:
	.cfi_endproc
.LFE75:
	.size	ChainTask, .-ChainTask
	.section	.text.TerminateTask,"ax",@progbits
.global	TerminateTask
	.type	TerminateTask, @function
TerminateTask:
.LFB76:
	.loc 2 829 0
	.cfi_startproc
	push r28
.LCFI28:
	.cfi_def_cfa_offset 3
	.cfi_offset 28, -2
	push r29
.LCFI29:
	.cfi_def_cfa_offset 4
	.cfi_offset 29, -3
/* prologue: function */
/* frame size = 0 */
/* stack size = 2 */
.L__stack_usage = 2
	.loc 2 840 0
	lds r30,osEE_cdb_var
	lds r31,osEE_cdb_var+1
.LVL104:
	.loc 2 842 0
	ld r26,Z
	ldd r27,Z+1
.LVL105:
	.loc 2 868 0
	adiw r26,7
	ld r24,X+
	ld r25,X
	sbiw r26,7+1
	sbiw r24,2
	brsh .L70
	.loc 2 877 0
	adiw r26,4
	ld r28,X+
	ld r29,X
	sbiw r26,4+1
	ldd r24,Y+4
	ldd r25,Y+5
	or r24,r25
	brne .L71
.LBB777:
	.loc 2 902 0
	ldd r24,Z+15
	tst r24
	breq .L68
	.loc 2 903 0
	std Z+15,__zero_reg__
.LVL106:
	.loc 2 904 0
	ldd r24,Z+13
.LVL107:
.LBB778:
.LBB779:
	.loc 3 123 0
	.loc 3 124 0
	out __SREG__,r24
.LVL108:
.L68:
.LBE779:
.LBE778:
	.loc 2 906 0
	ldd r24,Z+17
	tst r24
	breq .L69
	.loc 2 907 0
	std Z+17,__zero_reg__
.LBB780:
.LBB781:
	.loc 3 110 0
/* #APP */
 ;  110 "C:\Users\gabri\OneDrive\Desktop\OS4ES_~1\lab1.1\erika\src\ee_hal_internal.h" 1
	sei
 ;  0 "" 2
/* #NOAPP */
.L69:
.LBE781:
.LBE780:
.LBB782:
.LBB783:
.LBB784:
.LBB785:
	.loc 3 116 0
	in r24,__SREG__
.LBB786:
.LBB787:
	.loc 3 105 0
/* #APP */
 ;  105 "C:\Users\gabri\OneDrive\Desktop\OS4ES_~1\lab1.1\erika\src\ee_hal_internal.h" 1
	cli
 ;  0 "" 2
.LVL109:
/* #NOAPP */
.LBE787:
.LBE786:
.LBE785:
.LBE784:
.LBE783:
.LBE782:
.LBB788:
.LBB789:
	.loc 4 141 0
	ldi r22,lo8(gs(osEE_scheduler_task_end))
	ldi r23,hi8(gs(osEE_scheduler_task_end))
	adiw r26,2
	ld r24,X+
	ld r25,X
	call osEE_hal_terminate_ctx
.LVL110:
.L70:
.LBE789:
.LBE788:
.LBE777:
	.loc 2 874 0
	ldi r24,lo8(2)
	ldi r25,0
.L66:
/* epilogue start */
	.loc 2 937 0
	pop r29
	pop r28
	ret
.LVL111:
.L71:
	.loc 2 886 0
	ldi r24,lo8(6)
	ldi r25,0
.LVL112:
	.loc 2 936 0
	rjmp .L66
	.cfi_endproc
.LFE76:
	.size	TerminateTask, .-TerminateTask
	.section	.text.Schedule,"ax",@progbits
.global	Schedule
	.type	Schedule, @function
Schedule:
.LFB77:
	.loc 2 944 0
	.cfi_startproc
	push r15
.LCFI30:
	.cfi_def_cfa_offset 3
	.cfi_offset 15, -2
	push r16
.LCFI31:
	.cfi_def_cfa_offset 4
	.cfi_offset 16, -3
	push r17
.LCFI32:
	.cfi_def_cfa_offset 5
	.cfi_offset 17, -4
	push r28
.LCFI33:
	.cfi_def_cfa_offset 6
	.cfi_offset 28, -5
	push r29
.LCFI34:
	.cfi_def_cfa_offset 7
	.cfi_offset 29, -6
/* prologue: function */
/* frame size = 0 */
/* stack size = 5 */
.L__stack_usage = 5
.LVL113:
	.loc 2 953 0
	lds r30,osEE_cdb_var
	lds r31,osEE_cdb_var+1
	ld r28,Z
	ldd r29,Z+1
.LVL114:
	.loc 2 977 0
	ldd r24,Y+7
	ldd r25,Y+8
	sbiw r24,2
	brsh .L80
	.loc 2 954 0
	ldd r16,Y+4
	ldd r17,Y+5
	.loc 2 986 0
	movw r30,r16
	ldd r24,Z+4
	ldd r25,Z+5
	or r24,r25
	brne .L81
	.loc 2 1003 0
	ldd r25,Z+1
	ldd r24,Y+12
	cpse r25,r24
	rjmp .L82
.LBB790:
.LBB791:
.LBB792:
.LBB793:
.LBB794:
	.loc 3 116 0
	in r15,__SREG__
.LVL115:
.LBB795:
.LBB796:
	.loc 3 105 0
/* #APP */
 ;  105 "C:\Users\gabri\OneDrive\Desktop\OS4ES_~1\lab1.1\erika\src\ee_hal_internal.h" 1
	cli
 ;  0 "" 2
.LVL116:
/* #NOAPP */
.LBE796:
.LBE795:
.LBE794:
.LBE793:
.LBE792:
.LBE791:
	.loc 2 1009 0
	ldd r24,Y+11
	std Z+1,r24
.LVL117:
	.loc 2 1011 0
	ldi r24,lo8(osEE_kdb_var)
	ldi r25,hi8(osEE_kdb_var)
	call osEE_scheduler_task_preemption_point
.LVL118:
	.loc 2 1013 0
	ldd r24,Y+12
	movw r30,r16
	std Z+1,r24
.LBB797:
.LBB798:
.LBB799:
.LBB800:
	.loc 3 123 0
	.loc 3 124 0
	out __SREG__,r15
.LVL119:
.L82:
.LBE800:
.LBE799:
.LBE798:
.LBE797:
.LBE790:
	.loc 2 1021 0
	ldi r25,0
	ldi r24,0
.LVL120:
	.loc 2 1036 0
	rjmp .L78
.LVL121:
.L80:
	.loc 2 983 0
	ldi r24,lo8(2)
	ldi r25,0
.LVL122:
.L78:
/* epilogue start */
	.loc 2 1037 0
	pop r29
	pop r28
.LVL123:
	pop r17
	pop r16
	pop r15
	ret
.LVL124:
.L81:
	.loc 2 995 0
	ldi r24,lo8(6)
	ldi r25,0
	rjmp .L78
	.cfi_endproc
.LFE77:
	.size	Schedule, .-Schedule
	.section	.text.GetResource,"ax",@progbits
.global	GetResource
	.type	GetResource, @function
GetResource:
.LFB78:
	.loc 2 1045 0
	.cfi_startproc
.LVL125:
	push r16
.LCFI35:
	.cfi_def_cfa_offset 3
	.cfi_offset 16, -2
	push r17
.LCFI36:
	.cfi_def_cfa_offset 4
	.cfi_offset 17, -3
	push r28
.LCFI37:
	.cfi_def_cfa_offset 5
	.cfi_offset 28, -4
	push r29
.LCFI38:
	.cfi_def_cfa_offset 6
	.cfi_offset 29, -5
/* prologue: function */
/* frame size = 0 */
/* stack size = 4 */
.L__stack_usage = 4
.LVL126:
.LBB801:
.LBB802:
	.loc 1 291 0
	ldi r25,0
.LBE802:
.LBE801:
	.loc 2 1083 0
	lds r18,osEE_kdb_var+8
	lds r19,osEE_kdb_var+8+1
	cp r24,r18
	cpc r25,r19
	brlo .+2
	rjmp .L88
	.loc 2 1057 0
	lds r30,osEE_cdb_var
	lds r31,osEE_cdb_var+1
	ld r20,Z
	ldd r21,Z+1
.LBB803:
	.loc 2 1088 0
	lds r18,osEE_kdb_var+6
	lds r19,osEE_kdb_var+6+1
	lsl r24
	rol r25
.LVL127:
	add r24,r18
	adc r25,r19
	movw r28,r24
	ld r16,Y
	ldd r17,Y+1
.LVL128:
	.loc 2 1090 0
	movw r30,r16
	ld r26,Z
	ldd r27,Z+1
.LVL129:
	.loc 2 1092 0
	movw r28,r20
	ldd r30,Y+4
	ldd r31,Y+5
.LVL130:
	.loc 2 1094 0
	movw r28,r16
	ldd r24,Y+2
.LVL131:
	.loc 2 1096 0
	ldd r25,Z+1
.LVL132:
.LBB804:
.LBB805:
.LBB806:
.LBB807:
	.loc 3 116 0
	in r18,__SREG__
.LVL133:
.LBB808:
.LBB809:
	.loc 3 105 0
/* #APP */
 ;  105 "C:\Users\gabri\OneDrive\Desktop\OS4ES_~1\lab1.1\erika\src\ee_hal_internal.h" 1
	cli
 ;  0 "" 2
.LVL134:
/* #NOAPP */
.LBE809:
.LBE808:
.LBE807:
.LBE806:
.LBE805:
.LBE804:
	.loc 2 1100 0
	adiw r26,3
	ld r22,X+
	ld r23,X
	sbiw r26,3+1
	or r22,r23
	brne .L85
	.loc 2 1100 0 discriminator 1
	movw r28,r20
	ldd r19,Y+11
	cp r24,r19
	brsh .L86
.L85:
.LVL135:
.LBB810:
.LBB811:
.LBB812:
.LBB813:
	.loc 3 123 0
	.loc 3 124 0
	out __SREG__,r18
.LVL136:
.LBE813:
.LBE812:
.LBE811:
.LBE810:
	.loc 2 1105 0
	ldi r24,lo8(1)
	ldi r25,0
.LVL137:
.L83:
/* epilogue start */
.LBE803:
	.loc 2 1149 0
	pop r29
	pop r28
	pop r17
	pop r16
	ret
.LVL138:
.L86:
.LBB818:
	.loc 2 1118 0
	cp r25,r24
	brsh .L87
	.loc 2 1119 0
	std Z+1,r24
.LVL139:
.L87:
	.loc 2 1123 0
	adiw r26,3+1
	st X,r21
	st -X,r20
	sbiw r26,3
.LVL140:
.LBB814:
.LBB815:
.LBB816:
.LBB817:
	.loc 3 123 0
	.loc 3 124 0
	out __SREG__,r18
.LVL141:
.LBE817:
.LBE816:
.LBE815:
.LBE814:
	.loc 2 1127 0
	ldd r18,Z+4
	ldd r19,Z+5
.LVL142:
	adiw r26,1
	st X,r19
	st -X,r18
.LVL143:
	.loc 2 1128 0
	adiw r26,2
	st X,r25
	.loc 2 1129 0
	std Z+5,r17
	std Z+4,r16
.LVL144:
	.loc 2 1131 0
	ldi r25,0
.LVL145:
	ldi r24,0
.LVL146:
	rjmp .L83
.LVL147:
.L88:
.LBE818:
	.loc 2 1084 0
	ldi r24,lo8(3)
	ldi r25,0
.LVL148:
	.loc 2 1148 0
	rjmp .L83
	.cfi_endproc
.LFE78:
	.size	GetResource, .-GetResource
	.section	.text.ReleaseResource,"ax",@progbits
.global	ReleaseResource
	.type	ReleaseResource, @function
ReleaseResource:
.LFB79:
	.loc 2 1156 0
	.cfi_startproc
.LVL149:
	push r17
.LCFI39:
	.cfi_def_cfa_offset 3
	.cfi_offset 17, -2
	push r28
.LCFI40:
	.cfi_def_cfa_offset 4
	.cfi_offset 28, -3
	push r29
.LCFI41:
	.cfi_def_cfa_offset 5
	.cfi_offset 29, -4
/* prologue: function */
/* frame size = 0 */
/* stack size = 3 */
.L__stack_usage = 3
.LVL150:
.LBB819:
.LBB820:
	.loc 1 291 0
	ldi r25,0
.LBE820:
.LBE819:
	.loc 2 1191 0
	lds r18,osEE_kdb_var+8
	lds r19,osEE_kdb_var+8+1
	cp r24,r18
	cpc r25,r19
	brlo .+2
	rjmp .L93
	.loc 2 1166 0
	lds r30,osEE_cdb_var
	lds r31,osEE_cdb_var+1
	ld r20,Z
	ldd r21,Z+1
.LBB821:
	.loc 2 1196 0
	movw r26,r20
	adiw r26,4
	ld r30,X+
	ld r31,X
.LVL151:
	.loc 2 1198 0
	lds r18,osEE_kdb_var+6
	lds r19,osEE_kdb_var+6+1
	lsl r24
	rol r25
.LVL152:
	add r24,r18
	adc r25,r19
	movw r28,r24
	ld r24,Y
	ldd r25,Y+1
.LVL153:
	.loc 2 1200 0
	movw r28,r24
	ld r26,Y
	ldd r27,Y+1
.LVL154:
	.loc 2 1203 0
	adiw r26,3
	ld r18,X+
	ld r19,X
	sbiw r26,3+1
	or r18,r19
	breq .L95
	.loc 2 1203 0 discriminator 1
	ldd r18,Z+4
	ldd r19,Z+5
	cp r18,r24
	cpc r19,r25
	brne .L95
.LBB822:
.LBB823:
.LBB824:
.LBB825:
.LBB826:
	.loc 3 116 0
	in r17,__SREG__
.LVL155:
.LBB827:
.LBB828:
	.loc 3 105 0
/* #APP */
 ;  105 "C:\Users\gabri\OneDrive\Desktop\OS4ES_~1\lab1.1\erika\src\ee_hal_internal.h" 1
	cli
 ;  0 "" 2
.LVL156:
/* #NOAPP */
.LBE828:
.LBE827:
.LBE826:
.LBE825:
.LBE824:
.LBE823:
	.loc 2 1218 0
	ldd r24,Z+4
	ldd r25,Z+5
.LVL157:
	movw r28,r24
.LVL158:
	ld r24,Y
	ldd r25,Y+1
	movw r28,r24
	ld r24,Y
	ldd r25,Y+1
	std Z+5,r25
	std Z+4,r24
	.loc 2 1220 0
	or r24,r25
	breq .L91
.LVL159:
.LBB829:
	.loc 2 1224 0
	adiw r26,2
	ld r24,X
	sbiw r26,2
.LVL160:
.L96:
.LBE829:
.LBB830:
	.loc 2 1230 0
	std Z+1,r24
.LVL161:
.LBE830:
	.loc 2 1234 0
	adiw r26,3+1
	st X,__zero_reg__
	st -X,__zero_reg__
	sbiw r26,3
	.loc 2 1237 0
	ldi r24,lo8(osEE_kdb_var)
	ldi r25,hi8(osEE_kdb_var)
	call osEE_scheduler_task_preemption_point
.LVL162:
.LBB831:
.LBB832:
.LBB833:
.LBB834:
	.loc 3 123 0
	.loc 3 124 0
	out __SREG__,r17
.LVL163:
.LBE834:
.LBE833:
.LBE832:
.LBE831:
	.loc 2 1241 0
	ldi r25,0
	ldi r24,0
.LVL164:
.L89:
/* epilogue start */
.LBE822:
.LBE821:
	.loc 2 1259 0
	pop r29
	pop r28
	pop r17
	ret
.LVL165:
.L91:
.LBB837:
.LBB836:
.LBB835:
	.loc 2 1230 0
	movw r28,r20
	ldd r24,Y+12
	rjmp .L96
.LVL166:
.L93:
.LBE835:
.LBE836:
.LBE837:
	.loc 2 1192 0
	ldi r24,lo8(3)
	ldi r25,0
.LVL167:
	rjmp .L89
.LVL168:
.L95:
.LBB838:
	.loc 2 1210 0
	ldi r24,lo8(5)
	ldi r25,0
.LVL169:
.LBE838:
	.loc 2 1258 0
	rjmp .L89
	.cfi_endproc
.LFE79:
	.size	ReleaseResource, .-ReleaseResource
	.section	.text.ShutdownOS,"ax",@progbits
.global	ShutdownOS
	.type	ShutdownOS, @function
ShutdownOS:
.LFB80:
	.loc 2 1267 0
	.cfi_startproc
.LVL170:
/* prologue: function */
/* frame size = 0 */
/* stack size = 0 */
.L__stack_usage = 0
	movw r20,r24
	.loc 2 1275 0
	lds r30,osEE_cdb_var
	lds r31,osEE_cdb_var+1
.LVL171:
.LBB839:
.LBB840:
.LBB841:
.LBB842:
	.loc 3 116 0
	in r25,__SREG__
.LVL172:
.LBB843:
.LBB844:
	.loc 3 105 0
/* #APP */
 ;  105 "C:\Users\gabri\OneDrive\Desktop\OS4ES_~1\lab1.1\erika\src\ee_hal_internal.h" 1
	cli
 ;  0 "" 2
.LVL173:
/* #NOAPP */
.LBE844:
.LBE843:
.LBE842:
.LBE841:
.LBE840:
.LBE839:
	.loc 2 1277 0
	ldd r18,Z+8
	ldd r19,Z+9
.LVL174:
	.loc 2 1305 0
	subi r18,1
	sbc r19,__zero_reg__
.LVL175:
	cpi r18,2
	cpc r19,__zero_reg__
	brsh .L98
.LVL176:
.LBB845:
.LBB846:
	.loc 1 694 0
	ldi r24,lo8(3)
	ldi r25,0
.LVL177:
	std Z+9,r25
	std Z+8,r24
	.loc 1 696 0
	std Z+12,r21
	std Z+11,r20
.LBB847:
.LBB848:
	.loc 3 105 0
/* #APP */
 ;  105 "C:\Users\gabri\OneDrive\Desktop\OS4ES_~1\lab1.1\erika\src\ee_hal_internal.h" 1
	cli
 ;  0 "" 2
/* #NOAPP */
.L99:
	rjmp .L99
.LVL178:
.L98:
.LBE848:
.LBE847:
.LBE846:
.LBE845:
.LBB849:
.LBB850:
.LBB851:
.LBB852:
	.loc 3 123 0
	.loc 3 124 0
	out __SREG__,r25
.LVL179:
.LBE852:
.LBE851:
.LBE850:
.LBE849:
	.loc 2 1327 0
	ldi r24,lo8(7)
	ldi r25,0
/* epilogue start */
	ret
	.cfi_endproc
.LFE80:
	.size	ShutdownOS, .-ShutdownOS
	.section	.text.GetTaskID,"ax",@progbits
.global	GetTaskID
	.type	GetTaskID, @function
GetTaskID:
.LFB81:
	.loc 2 1334 0
	.cfi_startproc
.LVL180:
	push r28
.LCFI42:
	.cfi_def_cfa_offset 3
	.cfi_offset 28, -2
	push r29
.LCFI43:
	.cfi_def_cfa_offset 4
	.cfi_offset 29, -3
/* prologue: function */
/* frame size = 0 */
/* stack size = 2 */
.L__stack_usage = 2
	movw r26,r24
	.loc 2 1343 0
	lds r30,osEE_cdb_var
	lds r31,osEE_cdb_var+1
.LVL181:
	.loc 2 1374 0
	ldi r24,lo8(14)
	ldi r25,0
.LVL182:
	.loc 2 1373 0
	sbiw r26,0
	breq .L100
.LVL183:
.LBB853:
	.loc 2 1379 0
	ld r28,Z
	ldd r29,Z+1
.LVL184:
	.loc 2 1389 0
	ldd r24,Y+7
	ldd r25,Y+8
	cpi r24,2
	cpc r25,__zero_reg__
	brsh .L102
.LVL185:
.L109:
.LBB854:
.LBB855:
	.loc 2 1402 0
	ldd r25,Y+6
.LVL186:
.L103:
.LBE855:
.LBE854:
	.loc 2 1413 0
	st X,r25
.LVL187:
	.loc 2 1414 0
	ldi r25,0
.LVL188:
	ldi r24,0
.LVL189:
.L100:
/* epilogue start */
.LBE853:
	.loc 2 1431 0
	pop r29
	pop r28
	ret
.LVL190:
.L102:
.LBB860:
	.loc 2 1392 0
	sbiw r24,2
	brne .L108
.LBB858:
	.loc 2 1396 0
	ldd __tmp_reg__,Z+6
	ldd r31,Z+7
	mov r30,__tmp_reg__
.LVL191:
.L105:
.LBB856:
	.loc 2 1405 0
	ld __tmp_reg__,Z+
	ld r31,Z
	mov r30,__tmp_reg__
.LVL192:
.LBE856:
	.loc 2 1398 0
	sbiw r30,0
	brne .L106
.LVL193:
.L108:
.LBE858:
	.loc 2 1377 0
	ldi r25,lo8(-1)
	rjmp .L103
.LVL194:
.L106:
.LBB859:
.LBB857:
	.loc 2 1400 0
	ldd r28,Z+2
	ldd r29,Z+3
.LVL195:
	.loc 2 1401 0
	ldd r24,Y+7
	ldd r25,Y+8
	sbiw r24,2
	brsh .L105
	rjmp .L109
.LBE857:
.LBE859:
.LBE860:
	.cfi_endproc
.LFE81:
	.size	GetTaskID, .-GetTaskID
	.section	.text.GetTaskState,"ax",@progbits
.global	GetTaskState
	.type	GetTaskState, @function
GetTaskState:
.LFB82:
	.loc 2 1439 0
	.cfi_startproc
.LVL196:
	push r28
.LCFI44:
	.cfi_def_cfa_offset 3
	.cfi_offset 28, -2
	push r29
.LCFI45:
	.cfi_def_cfa_offset 4
	.cfi_offset 29, -3
/* prologue: function */
/* frame size = 0 */
/* stack size = 2 */
.L__stack_usage = 2
	movw r30,r22
.LVL197:
	.loc 2 1479 0
	sbiw r30,0
	breq .L117
.LVL198:
.LBB861:
.LBB862:
	.loc 1 276 0
	ldi r25,0
.LBE862:
.LBE861:
	.loc 2 1482 0
	lds r18,osEE_kdb_var+4
	lds r19,osEE_kdb_var+4+1
	cp r24,r18
	cpc r25,r19
	brsh .L118
.LVL199:
.LBB863:
	.loc 2 1487 0
	lds r18,osEE_kdb_var+2
	lds r19,osEE_kdb_var+2+1
	lsl r24
	rol r25
.LVL200:
	add r24,r18
	adc r25,r19
	.loc 2 1490 0
	movw r28,r24
	ld r26,Y
	ldd r27,Y+1
	adiw r26,4
	ld __tmp_reg__,X+
	ld r27,X
	mov r26,__tmp_reg__
	.loc 2 1491 0
	adiw r26,2
	ld r24,X+
	ld r25,X
	cpi r24,3
	cpc r25,__zero_reg__
	brsh .L112
	sbiw r24,1
	brlo .L120
	.loc 2 1497 0
	ldi r24,lo8(1)
	ldi r25,0
.L122:
	.loc 2 1504 0
	std Z+1,r25
	st Z,r24
	rjmp .L119
.L112:
	.loc 2 1491 0
	cpi r24,3
	cpc r25,__zero_reg__
	breq .L122
	sbiw r24,6
	brlo .L121
.L119:
	.loc 2 1511 0
	ldi r25,0
	ldi r24,0
.LVL201:
.LBE863:
	.loc 2 1528 0
	rjmp .L110
.LVL202:
.L120:
.LBB864:
	.loc 2 1493 0
	std Z+1,__zero_reg__
	st Z,__zero_reg__
	rjmp .L119
.L121:
	.loc 2 1504 0
	ldi r24,lo8(4)
	ldi r25,0
	rjmp .L122
.LVL203:
.L117:
.LBE864:
	.loc 2 1480 0
	ldi r24,lo8(14)
	ldi r25,0
.LVL204:
.L110:
/* epilogue start */
	.loc 2 1529 0
	pop r29
	pop r28
	ret
.LVL205:
.L118:
	.loc 2 1483 0
	ldi r24,lo8(3)
	ldi r25,0
.LVL206:
	rjmp .L110
	.cfi_endproc
.LFE82:
	.size	GetTaskState, .-GetTaskState
	.section	.text.SetRelAlarm,"ax",@progbits
.global	SetRelAlarm
	.type	SetRelAlarm, @function
SetRelAlarm:
.LFB83:
	.loc 2 1539 0
	.cfi_startproc
.LVL207:
	push r28
.LCFI46:
	.cfi_def_cfa_offset 3
	.cfi_offset 28, -2
	push r29
.LCFI47:
	.cfi_def_cfa_offset 4
	.cfi_offset 29, -3
/* prologue: function */
/* frame size = 0 */
/* stack size = 2 */
.L__stack_usage = 2
.LVL208:
.LBB865:
.LBB866:
	.loc 1 868 0
	ldi r25,0
.LBE866:
.LBE865:
	.loc 2 1575 0
	lds r18,osEE_kdb_var+16
	lds r19,osEE_kdb_var+16+1
	cp r24,r18
	cpc r25,r19
	brsh .L126
.LVL209:
.LBB867:
	.loc 2 1586 0
	cp r22,__zero_reg__
	cpc r23,__zero_reg__
	breq .L130
	.loc 2 1580 0 discriminator 1
	lds r18,osEE_kdb_var+14
	lds r19,osEE_kdb_var+14+1
	lsl r24
	rol r25
.LVL210:
	add r24,r18
	adc r25,r19
	movw r26,r24
	ld r30,X+
	ld r31,X
	.loc 2 1582 0 discriminator 1
	ldd r24,Z+2
	ldd r25,Z+3
	.loc 2 1587 0 discriminator 1
	movw r28,r24
	ldd r18,Y+2
	ldd r19,Y+3
	.loc 2 1586 0 discriminator 1
	cp r18,r22
	cpc r19,r23
	brlo .L130
	.loc 2 1587 0
	cp r20,__zero_reg__
	cpc r21,__zero_reg__
	breq .L125
	.loc 2 1588 0
	ldd r26,Y+6
	ldd r27,Y+7
	cp r20,r26
	cpc r21,r27
	brlo .L130
	.loc 2 1588 0 is_stmt 0 discriminator 1
	cp r18,r20
	cpc r19,r21
	brlo .L130
.L125:
	movw r18,r20
	movw r20,r22
.LVL211:
.LBB868:
.LBB869:
.LBB870:
.LBB871:
.LBB872:
	.loc 3 116 0 is_stmt 1
	in r28,__SREG__
.LVL212:
.LBB873:
.LBB874:
	.loc 3 105 0
/* #APP */
 ;  105 "C:\Users\gabri\OneDrive\Desktop\OS4ES_~1\lab1.1\erika\src\ee_hal_internal.h" 1
	cli
 ;  0 "" 2
.LVL213:
/* #NOAPP */
.LBE874:
.LBE873:
.LBE872:
.LBE871:
.LBE870:
.LBE869:
	.loc 2 1599 0
	movw r22,r30
.LVL214:
	call osEE_alarm_set_rel
.LVL215:
.LBB875:
.LBB876:
.LBB877:
.LBB878:
	.loc 3 123 0
	.loc 3 124 0
	out __SREG__,r28
.LVL216:
.L123:
/* epilogue start */
.LBE878:
.LBE877:
.LBE876:
.LBE875:
.LBE868:
.LBE867:
	.loc 2 1621 0
	pop r29
	pop r28
	ret
.LVL217:
.L126:
	.loc 2 1576 0
	ldi r24,lo8(3)
	ldi r25,0
.LVL218:
	rjmp .L123
.L130:
.LBB879:
	.loc 2 1592 0
	ldi r24,lo8(8)
	ldi r25,0
.LVL219:
.LBE879:
	.loc 2 1620 0
	rjmp .L123
	.cfi_endproc
.LFE83:
	.size	SetRelAlarm, .-SetRelAlarm
	.section	.text.SetAbsAlarm,"ax",@progbits
.global	SetAbsAlarm
	.type	SetAbsAlarm, @function
SetAbsAlarm:
.LFB84:
	.loc 2 1630 0
	.cfi_startproc
.LVL220:
	push r28
.LCFI48:
	.cfi_def_cfa_offset 3
	.cfi_offset 28, -2
	push r29
.LCFI49:
	.cfi_def_cfa_offset 4
	.cfi_offset 29, -3
/* prologue: function */
/* frame size = 0 */
/* stack size = 2 */
.L__stack_usage = 2
.LVL221:
.LBB880:
.LBB881:
	.loc 1 868 0
	ldi r25,0
.LBE881:
.LBE880:
	.loc 2 1666 0
	lds r18,osEE_kdb_var+16
	lds r19,osEE_kdb_var+16+1
	cp r24,r18
	cpc r25,r19
	brsh .L137
.LBB882:
	.loc 2 1671 0
	lds r18,osEE_kdb_var+14
	lds r19,osEE_kdb_var+14+1
	lsl r24
	rol r25
.LVL222:
	add r24,r18
	adc r25,r19
	movw r26,r24
	ld r30,X+
	ld r31,X
.LVL223:
	.loc 2 1673 0
	ldd r24,Z+2
	ldd r25,Z+3
.LVL224:
	.loc 2 1677 0
	movw r28,r24
	ldd r18,Y+2
	ldd r19,Y+3
	cp r18,r22
	cpc r19,r23
	brlo .L140
	.loc 2 1677 0 is_stmt 0 discriminator 1
	cp r20,__zero_reg__
	cpc r21,__zero_reg__
	breq .L136
	.loc 2 1678 0 is_stmt 1
	ldd r26,Y+6
	ldd r27,Y+7
	cp r20,r26
	cpc r21,r27
	brlo .L140
	.loc 2 1678 0 is_stmt 0 discriminator 1
	cp r18,r20
	cpc r19,r21
	brlo .L140
.L136:
	movw r18,r20
	movw r20,r22
.LVL225:
.LBB883:
.LBB884:
.LBB885:
.LBB886:
.LBB887:
	.loc 3 116 0 is_stmt 1
	in r28,__SREG__
.LVL226:
.LBB888:
.LBB889:
	.loc 3 105 0
/* #APP */
 ;  105 "C:\Users\gabri\OneDrive\Desktop\OS4ES_~1\lab1.1\erika\src\ee_hal_internal.h" 1
	cli
 ;  0 "" 2
.LVL227:
/* #NOAPP */
.LBE889:
.LBE888:
.LBE887:
.LBE886:
.LBE885:
.LBE884:
	.loc 2 1689 0
	movw r22,r30
.LVL228:
	call osEE_alarm_set_abs
.LVL229:
.LBB890:
.LBB891:
.LBB892:
.LBB893:
	.loc 3 123 0
	.loc 3 124 0
	out __SREG__,r28
.LVL230:
.L134:
/* epilogue start */
.LBE893:
.LBE892:
.LBE891:
.LBE890:
.LBE883:
.LBE882:
	.loc 2 1711 0
	pop r29
	pop r28
	ret
.LVL231:
.L137:
	.loc 2 1667 0
	ldi r24,lo8(3)
	ldi r25,0
.LVL232:
	rjmp .L134
.LVL233:
.L140:
.LBB894:
	.loc 2 1682 0
	ldi r24,lo8(8)
	ldi r25,0
.LVL234:
.LBE894:
	.loc 2 1710 0
	rjmp .L134
	.cfi_endproc
.LFE84:
	.size	SetAbsAlarm, .-SetAbsAlarm
	.section	.text.CancelAlarm,"ax",@progbits
.global	CancelAlarm
	.type	CancelAlarm, @function
CancelAlarm:
.LFB85:
	.loc 2 1718 0
	.cfi_startproc
.LVL235:
	push r28
.LCFI50:
	.cfi_def_cfa_offset 3
	.cfi_offset 28, -2
/* prologue: function */
/* frame size = 0 */
/* stack size = 1 */
.L__stack_usage = 1
.LVL236:
.LBB895:
.LBB896:
	.loc 1 868 0
	ldi r25,0
.LBE896:
.LBE895:
	.loc 2 1754 0
	lds r18,osEE_kdb_var+16
	lds r19,osEE_kdb_var+16+1
	cp r24,r18
	cpc r25,r19
	brsh .L146
.LBB897:
	.loc 2 1758 0
	lds r18,osEE_kdb_var+14
	lds r19,osEE_kdb_var+14+1
	lsl r24
	rol r25
.LVL237:
	add r24,r18
	adc r25,r19
	movw r30,r24
	ld r24,Z
	ldd r25,Z+1
.LVL238:
.LBB898:
.LBB899:
.LBB900:
.LBB901:
	.loc 3 116 0
	in r28,__SREG__
.LVL239:
.LBB902:
.LBB903:
	.loc 3 105 0
/* #APP */
 ;  105 "C:\Users\gabri\OneDrive\Desktop\OS4ES_~1\lab1.1\erika\src\ee_hal_internal.h" 1
	cli
 ;  0 "" 2
.LVL240:
/* #NOAPP */
.LBE903:
.LBE902:
.LBE901:
.LBE900:
.LBE899:
.LBE898:
	.loc 2 1762 0
	call osEE_alarm_cancel
.LVL241:
.LBB904:
.LBB905:
.LBB906:
.LBB907:
	.loc 3 123 0
	.loc 3 124 0
	out __SREG__,r28
.LVL242:
.L144:
/* epilogue start */
.LBE907:
.LBE906:
.LBE905:
.LBE904:
.LBE897:
	.loc 2 1781 0
	pop r28
	ret
.LVL243:
.L146:
	.loc 2 1755 0
	ldi r24,lo8(3)
	ldi r25,0
.LVL244:
	.loc 2 1780 0
	rjmp .L144
	.cfi_endproc
.LFE85:
	.size	CancelAlarm, .-CancelAlarm
	.section	.text.GetAlarm,"ax",@progbits
.global	GetAlarm
	.type	GetAlarm, @function
GetAlarm:
.LFB86:
	.loc 2 1789 0
	.cfi_startproc
.LVL245:
	push r28
.LCFI51:
	.cfi_def_cfa_offset 3
	.cfi_offset 28, -2
/* prologue: function */
/* frame size = 0 */
/* stack size = 1 */
.L__stack_usage = 1
.LVL246:
.LBB908:
.LBB909:
	.loc 1 868 0
	ldi r25,0
.LBE909:
.LBE908:
	.loc 2 1825 0
	lds r18,osEE_kdb_var+16
	lds r19,osEE_kdb_var+16+1
	cp r24,r18
	cpc r25,r19
	brsh .L149
	.loc 2 1828 0
	cp r22,__zero_reg__
	cpc r23,__zero_reg__
	breq .L150
.LBB910:
	.loc 2 1833 0
	lds r18,osEE_kdb_var+14
	lds r19,osEE_kdb_var+14+1
	lsl r24
	rol r25
.LVL247:
	add r24,r18
	adc r25,r19
	movw r30,r24
	ld r24,Z
	ldd r25,Z+1
.LVL248:
.LBB911:
.LBB912:
.LBB913:
.LBB914:
	.loc 3 116 0
	in r28,__SREG__
.LVL249:
.LBB915:
.LBB916:
	.loc 3 105 0
/* #APP */
 ;  105 "C:\Users\gabri\OneDrive\Desktop\OS4ES_~1\lab1.1\erika\src\ee_hal_internal.h" 1
	cli
 ;  0 "" 2
.LVL250:
/* #NOAPP */
.LBE916:
.LBE915:
.LBE914:
.LBE913:
.LBE912:
.LBE911:
	.loc 2 1837 0
	call osEE_alarm_get
.LVL251:
.LBB917:
.LBB918:
.LBB919:
.LBB920:
	.loc 3 123 0
	.loc 3 124 0
	out __SREG__,r28
.LVL252:
.L147:
/* epilogue start */
.LBE920:
.LBE919:
.LBE918:
.LBE917:
.LBE910:
	.loc 2 1857 0
	pop r28
	ret
.LVL253:
.L149:
	.loc 2 1826 0
	ldi r24,lo8(3)
	ldi r25,0
.LVL254:
	rjmp .L147
.LVL255:
.L150:
	.loc 2 1829 0
	ldi r24,lo8(14)
	ldi r25,0
.LVL256:
	.loc 2 1856 0
	rjmp .L147
	.cfi_endproc
.LFE86:
	.size	GetAlarm, .-GetAlarm
	.section	.text.GetAlarmBase,"ax",@progbits
.global	GetAlarmBase
	.type	GetAlarmBase, @function
GetAlarmBase:
.LFB87:
	.loc 2 1865 0
	.cfi_startproc
.LVL257:
/* prologue: function */
/* frame size = 0 */
/* stack size = 0 */
.L__stack_usage = 0
.LBB921:
.LBB922:
	.loc 1 868 0
	ldi r25,0
.LBE922:
.LBE921:
	.loc 2 1901 0
	lds r18,osEE_kdb_var+16
	lds r19,osEE_kdb_var+16+1
	cp r24,r18
	cpc r25,r19
	brsh .L153
	.loc 2 1904 0
	cp r22,__zero_reg__
	cpc r23,__zero_reg__
	breq .L154
.LVL258:
.LBB923:
	.loc 2 1909 0
	lds r18,osEE_kdb_var+14
	lds r19,osEE_kdb_var+14+1
	lsl r24
	rol r25
.LVL259:
	add r24,r18
	adc r25,r19
	.loc 2 1913 0
	movw r26,r24
	ld r30,X+
	ld r31,X
	.loc 2 1915 0
	ldd __tmp_reg__,Z+2
	ldd r31,Z+3
	mov r30,__tmp_reg__
	ldi r24,lo8(6)
	adiw r30,2
	movw r26,r22
	0:
	ld r0,Z+
	st X+,r0
	dec r24
	brne 0b
.LVL260:
	.loc 2 1917 0
	ldi r25,0
	ldi r24,0
	ret
.LVL261:
.L153:
.LBE923:
	.loc 2 1902 0
	ldi r24,lo8(3)
	ldi r25,0
.LVL262:
	ret
.LVL263:
.L154:
	.loc 2 1905 0
	ldi r24,lo8(14)
	ldi r25,0
.LVL264:
/* epilogue start */
	.loc 2 1935 0
	ret
	.cfi_endproc
.LFE87:
	.size	GetAlarmBase, .-GetAlarmBase
	.section	.text.WaitEvent,"ax",@progbits
.global	WaitEvent
	.type	WaitEvent, @function
WaitEvent:
.LFB88:
	.loc 2 1945 0
	.cfi_startproc
.LVL265:
	push r11
.LCFI52:
	.cfi_def_cfa_offset 3
	.cfi_offset 11, -2
	push r12
.LCFI53:
	.cfi_def_cfa_offset 4
	.cfi_offset 12, -3
	push r13
.LCFI54:
	.cfi_def_cfa_offset 5
	.cfi_offset 13, -4
	push r14
.LCFI55:
	.cfi_def_cfa_offset 6
	.cfi_offset 14, -5
	push r15
.LCFI56:
	.cfi_def_cfa_offset 7
	.cfi_offset 15, -6
	push r16
.LCFI57:
	.cfi_def_cfa_offset 8
	.cfi_offset 16, -7
	push r17
.LCFI58:
	.cfi_def_cfa_offset 9
	.cfi_offset 17, -8
	push r28
.LCFI59:
	.cfi_def_cfa_offset 10
	.cfi_offset 28, -9
	push r29
.LCFI60:
	.cfi_def_cfa_offset 11
	.cfi_offset 29, -10
/* prologue: function */
/* frame size = 0 */
/* stack size = 9 */
.L__stack_usage = 9
	movw r12,r24
	.loc 2 1950 0
	lds r16,osEE_cdb_var
	lds r17,osEE_cdb_var+1
.LVL266:
	.loc 2 1970 0
	movw r24,r16
.LVL267:
	call osEE_check_disableint
.LVL268:
	or r24,r25
	brne .L158
	.loc 2 1952 0
	movw r30,r16
	ld r14,Z
	ldd r15,Z+1
	.loc 2 1973 0
	movw r30,r14
	ldd r24,Z+7
	ldd r25,Z+8
	cpi r24,2
	cpc r25,__zero_reg__
	brsh .L159
	.loc 2 1954 0
	ldd r28,Z+4
	ldd r29,Z+5
	.loc 2 1982 0
	ldd r18,Y+4
	ldd r19,Y+5
	or r18,r19
	brne .L160
	.loc 2 1998 0
	sbiw r24,1
	brne .L161
.LBB924:
.LBB925:
.LBB926:
.LBB927:
.LBB928:
	.loc 3 116 0
	in r11,__SREG__
.LVL269:
.LBB929:
.LBB930:
	.loc 3 105 0
/* #APP */
 ;  105 "C:\Users\gabri\OneDrive\Desktop\OS4ES_~1\lab1.1\erika\src\ee_hal_internal.h" 1
	cli
 ;  0 "" 2
.LVL270:
/* #NOAPP */
.LBE930:
.LBE929:
.LBE928:
.LBE927:
.LBE926:
.LBE925:
	.loc 2 2008 0
	ldd r24,Y+8
	ldd r25,Y+9
	and r24,r12
	and r25,r13
	or r24,r25
	brne .L157
	.loc 2 2010 0
	std Y+7,r13
	std Y+6,r12
	.loc 2 2013 0
	movw r22,r16
	subi r22,-2
	sbci r23,-1
	ldi r24,lo8(osEE_cdb_var)
	ldi r25,hi8(osEE_cdb_var)
	call osEE_scheduler_core_pop_running
.LVL271:
	.loc 2 2012 0
	std Y+11,r25
	std Y+10,r24
	.loc 2 2015 0
	ldi r24,lo8(3)
	ldi r25,0
	std Y+3,r25
	std Y+2,r24
.LVL272:
	.loc 2 2019 0
	movw r30,r16
	ld r22,Z
	ldd r23,Z+1
	movw r24,r14
	call osEE_change_context_from_running
.LVL273:
	.loc 2 2022 0
	std Y+7,__zero_reg__
	std Y+6,__zero_reg__
.LVL274:
.L157:
.LBB931:
.LBB932:
.LBB933:
.LBB934:
	.loc 3 123 0
	.loc 3 124 0
	out __SREG__,r11
.LVL275:
	ldi r25,0
	ldi r24,0
.LVL276:
.L155:
/* epilogue start */
.LBE934:
.LBE933:
.LBE932:
.LBE931:
.LBE924:
	.loc 2 2047 0
	pop r29
	pop r28
	pop r17
	pop r16
	pop r15
	pop r14
	pop r13
	pop r12
.LVL277:
	pop r11
	ret
.LVL278:
.L158:
	.loc 2 1971 0
	ldi r24,lo8(12)
	ldi r25,0
	rjmp .L155
.L159:
	.loc 2 1979 0
	ldi r24,lo8(2)
	ldi r25,0
	rjmp .L155
.L160:
	.loc 2 1991 0
	ldi r24,lo8(6)
	ldi r25,0
	rjmp .L155
.L161:
	.loc 2 1999 0
	ldi r24,lo8(1)
	ldi r25,0
.LVL279:
	.loc 2 2046 0
	rjmp .L155
	.cfi_endproc
.LFE88:
	.size	WaitEvent, .-WaitEvent
	.section	.text.SetEvent,"ax",@progbits
.global	SetEvent
	.type	SetEvent, @function
SetEvent:
.LFB89:
	.loc 2 2055 0
	.cfi_startproc
.LVL280:
	push r12
.LCFI61:
	.cfi_def_cfa_offset 3
	.cfi_offset 12, -2
	push r13
.LCFI62:
	.cfi_def_cfa_offset 4
	.cfi_offset 13, -3
	push r14
.LCFI63:
	.cfi_def_cfa_offset 5
	.cfi_offset 14, -4
	push r15
.LCFI64:
	.cfi_def_cfa_offset 6
	.cfi_offset 15, -5
	push r17
.LCFI65:
	.cfi_def_cfa_offset 7
	.cfi_offset 17, -6
	push r28
.LCFI66:
	.cfi_def_cfa_offset 8
	.cfi_offset 28, -7
	push r29
.LCFI67:
	.cfi_def_cfa_offset 9
	.cfi_offset 29, -8
	rcall .
.LCFI68:
	.cfi_def_cfa_offset 11
	in r28,__SP_L__
	in r29,__SP_H__
.LCFI69:
	.cfi_def_cfa_register 28
/* prologue: function */
/* frame size = 2 */
/* stack size = 9 */
.L__stack_usage = 9
	mov r17,r24
	movw r14,r22
	.loc 2 2064 0
	lds r12,osEE_cdb_var
	lds r13,osEE_cdb_var+1
.LVL281:
	.loc 2 2083 0
	movw r24,r12
.LVL282:
	call osEE_check_disableint
.LVL283:
	or r24,r25
	breq .L163
	.loc 2 2084 0
	ldi r24,lo8(12)
	ldi r25,0
.L173:
	.loc 2 2092 0
	std Y+2,r25
	std Y+1,r24
.LVL284:
.L164:
	.loc 2 2141 0
	ldd r24,Y+1
	ldd r25,Y+2
/* epilogue start */
	pop __tmp_reg__
	pop __tmp_reg__
	pop r29
	pop r28
	pop r17
	pop r15
	pop r14
.LVL285:
	pop r13
	pop r12
.LVL286:
	ret
.LVL287:
.L163:
	.loc 2 2086 0
	movw r26,r12
	ld r30,X+
	ld r31,X
	ldd r24,Z+7
	ldd r25,Z+8
	sbiw r24,3
	brlo .L165
	.loc 2 2092 0
	ldi r24,lo8(2)
	ldi r25,0
	rjmp .L173
.L165:
.LVL288:
.LBB935:
.LBB936:
	.loc 1 276 0
	mov r24,r17
	ldi r25,0
.LBE936:
.LBE935:
	.loc 2 2103 0
	lds r18,osEE_kdb_var+4
	lds r19,osEE_kdb_var+4+1
	cp r24,r18
	cpc r25,r19
	brlo .L166
	.loc 2 2104 0
	ldi r24,lo8(3)
	ldi r25,0
	rjmp .L173
.L166:
.LBB937:
	.loc 2 2109 0
	lds r18,osEE_kdb_var+2
	lds r19,osEE_kdb_var+2+1
	lsl r24
	rol r25
	add r24,r18
	adc r25,r19
	movw r30,r24
	ld r24,Z
	ldd r25,Z+1
.LVL289:
.LBB938:
.LBB939:
.LBB940:
.LBB941:
	.loc 3 116 0
	in r17,__SREG__
.LVL290:
.LBB942:
.LBB943:
	.loc 3 105 0
/* #APP */
 ;  105 "C:\Users\gabri\OneDrive\Desktop\OS4ES_~1\lab1.1\erika\src\ee_hal_internal.h" 1
	cli
 ;  0 "" 2
.LVL291:
/* #NOAPP */
.LBE943:
.LBE942:
.LBE941:
.LBE940:
.LBE939:
.LBE938:
	.loc 2 2113 0
	movw r20,r28
	subi r20,-1
	sbci r21,-1
	movw r22,r14
	call osEE_task_event_set_mask
.LVL292:
	.loc 2 2115 0
	sbiw r24,0
	breq .L168
	.loc 2 2117 0
	movw r22,r24
	ldi r24,lo8(osEE_kdb_var)
	ldi r25,hi8(osEE_kdb_var)
.LVL293:
	call osEE_scheduler_task_unblocked
.LVL294:
	or r24,r25
	breq .L168
	.loc 2 2119 0
	ldi r24,lo8(osEE_kdb_var)
	ldi r25,hi8(osEE_kdb_var)
	call osEE_scheduler_task_preemption_point
.LVL295:
.L168:
.LBB944:
.LBB945:
.LBB946:
.LBB947:
	.loc 3 123 0
	.loc 3 124 0
	out __SREG__,r17
.LVL296:
	rjmp .L164
.LBE947:
.LBE946:
.LBE945:
.LBE944:
.LBE937:
	.cfi_endproc
.LFE89:
	.size	SetEvent, .-SetEvent
	.section	.text.GetEvent,"ax",@progbits
.global	GetEvent
	.type	GetEvent, @function
GetEvent:
.LFB90:
	.loc 2 2149 0
	.cfi_startproc
.LVL297:
	push r14
.LCFI70:
	.cfi_def_cfa_offset 3
	.cfi_offset 14, -2
	push r15
.LCFI71:
	.cfi_def_cfa_offset 4
	.cfi_offset 15, -3
	push r16
.LCFI72:
	.cfi_def_cfa_offset 5
	.cfi_offset 16, -4
	push r17
.LCFI73:
	.cfi_def_cfa_offset 6
	.cfi_offset 17, -5
	push r28
.LCFI74:
	.cfi_def_cfa_offset 7
	.cfi_offset 28, -6
/* prologue: function */
/* frame size = 0 */
/* stack size = 5 */
.L__stack_usage = 5
	mov r28,r24
	movw r16,r22
	.loc 2 2158 0
	lds r14,osEE_cdb_var
	lds r15,osEE_cdb_var+1
.LVL298:
	.loc 2 2180 0
	movw r24,r14
.LVL299:
	call osEE_check_disableint
.LVL300:
	or r24,r25
	brne .L176
	.loc 2 2183 0
	movw r26,r14
	ld r30,X+
	ld r31,X
.LVL301:
	ldd r24,Z+7
	ldd r25,Z+8
	sbiw r24,3
	brsh .L177
.LVL302:
.LBB948:
.LBB949:
	.loc 1 276 0
	mov r24,r28
	ldi r25,0
.LBE949:
.LBE948:
	.loc 2 2202 0
	lds r18,osEE_kdb_var+4
	lds r19,osEE_kdb_var+4+1
	cp r24,r18
	cpc r25,r19
	brsh .L178
.LBB950:
	.loc 2 2207 0
	lds r18,osEE_kdb_var+2
	lds r19,osEE_kdb_var+2+1
	lsl r24
	rol r25
	add r24,r18
	adc r25,r19
	movw r26,r24
	ld r30,X+
	ld r31,X
.LVL303:
	.loc 2 2213 0
	ldd r24,Z+7
	ldd r25,Z+8
	sbiw r24,1
	brne .L179
	.loc 2 2209 0
	ldd __tmp_reg__,Z+4
	ldd r31,Z+5
	mov r30,__tmp_reg__
.LVL304:
	.loc 2 2216 0
	ldd r24,Z+2
	ldd r25,Z+3
	or r24,r25
	breq .L180
	.loc 2 2221 0
	ldi r24,lo8(14)
	ldi r25,0
	.loc 2 2220 0
	cp r16,__zero_reg__
	cpc r17,__zero_reg__
	breq .L174
	.loc 2 2225 0
	ldd r24,Z+8
	ldd r25,Z+9
	movw r30,r16
.LVL305:
	std Z+1,r25
	st Z,r24
.LVL306:
	.loc 2 2227 0
	ldi r25,0
	ldi r24,0
.LVL307:
.L174:
/* epilogue start */
.LBE950:
	.loc 2 2247 0
	pop r28
.LVL308:
	pop r17
	pop r16
.LVL309:
	pop r15
	pop r14
.LVL310:
	ret
.LVL311:
.L176:
	.loc 2 2181 0
	ldi r24,lo8(12)
	ldi r25,0
	rjmp .L174
.LVL312:
.L177:
	.loc 2 2191 0
	ldi r24,lo8(2)
	ldi r25,0
	rjmp .L174
.LVL313:
.L178:
	.loc 2 2203 0
	ldi r24,lo8(3)
	ldi r25,0
.LVL314:
	rjmp .L174
.LVL315:
.L179:
.LBB951:
	.loc 2 2214 0
	ldi r24,lo8(1)
	ldi r25,0
	rjmp .L174
.LVL316:
.L180:
	.loc 2 2217 0
	ldi r24,lo8(7)
	ldi r25,0
	rjmp .L174
.LBE951:
	.cfi_endproc
.LFE90:
	.size	GetEvent, .-GetEvent
	.section	.text.ClearEvent,"ax",@progbits
.global	ClearEvent
	.type	ClearEvent, @function
ClearEvent:
.LFB91:
	.loc 2 2254 0
	.cfi_startproc
.LVL317:
	push r16
.LCFI75:
	.cfi_def_cfa_offset 3
	.cfi_offset 16, -2
	push r17
.LCFI76:
	.cfi_def_cfa_offset 4
	.cfi_offset 17, -3
	push r28
.LCFI77:
	.cfi_def_cfa_offset 5
	.cfi_offset 28, -4
	push r29
.LCFI78:
	.cfi_def_cfa_offset 6
	.cfi_offset 29, -5
/* prologue: function */
/* frame size = 0 */
/* stack size = 4 */
.L__stack_usage = 4
	movw r28,r24
	.loc 2 2263 0
	lds r16,osEE_cdb_var
	lds r17,osEE_cdb_var+1
.LVL318:
	.loc 2 2283 0
	movw r24,r16
.LVL319:
	call osEE_check_disableint
.LVL320:
	or r24,r25
	brne .L184
	.loc 2 2265 0
	movw r26,r16
	ld r30,X+
	ld r31,X
	.loc 2 2286 0
	ldd r24,Z+7
	ldd r25,Z+8
	cpi r24,2
	cpc r25,__zero_reg__
	brsh .L185
	.loc 2 2294 0
	sbiw r24,1
	brne .L186
	.loc 2 2267 0
	ldd __tmp_reg__,Z+4
	ldd r31,Z+5
	mov r30,__tmp_reg__
.LBB952:
.LBB953:
.LBB954:
.LBB955:
.LBB956:
	.loc 3 116 0
	in r18,__SREG__
.LVL321:
.LBB957:
.LBB958:
	.loc 3 105 0
/* #APP */
 ;  105 "C:\Users\gabri\OneDrive\Desktop\OS4ES_~1\lab1.1\erika\src\ee_hal_internal.h" 1
	cli
 ;  0 "" 2
.LVL322:
/* #NOAPP */
.LBE958:
.LBE957:
.LBE956:
.LBE955:
.LBE954:
.LBE953:
	.loc 2 2305 0
	com r28
	com r29
.LVL323:
	ldd r24,Z+8
	ldd r25,Z+9
	and r24,r28
	and r25,r29
	std Z+9,r25
	std Z+8,r24
.LVL324:
.LBB959:
.LBB960:
.LBB961:
.LBB962:
	.loc 3 123 0
	.loc 3 124 0
	out __SREG__,r18
.LVL325:
.LBE962:
.LBE961:
.LBE960:
.LBE959:
	.loc 2 2310 0
	ldi r25,0
	ldi r24,0
.LVL326:
.L182:
/* epilogue start */
.LBE952:
	.loc 2 2326 0
	pop r29
	pop r28
	pop r17
	pop r16
	ret
.LVL327:
.L184:
	.loc 2 2284 0
	ldi r24,lo8(12)
	ldi r25,0
	rjmp .L182
.L185:
	.loc 2 2292 0
	ldi r24,lo8(2)
	ldi r25,0
	rjmp .L182
.L186:
	.loc 2 2295 0
	ldi r24,lo8(1)
	ldi r25,0
.LVL328:
	.loc 2 2325 0
	rjmp .L182
	.cfi_endproc
.LFE91:
	.size	ClearEvent, .-ClearEvent
	.section	.text.GetCounterValue,"ax",@progbits
.global	GetCounterValue
	.type	GetCounterValue, @function
GetCounterValue:
.LFB92:
	.loc 2 2336 0
	.cfi_startproc
.LVL329:
/* prologue: function */
/* frame size = 0 */
/* stack size = 0 */
.L__stack_usage = 0
.LBB963:
.LBB964:
	.loc 1 744 0
	ldi r25,0
.LBE964:
.LBE963:
	.loc 2 2374 0
	lds r18,osEE_kdb_var+12
	lds r19,osEE_kdb_var+12+1
	cp r24,r18
	cpc r25,r19
	brsh .L189
	.loc 2 2377 0
	cp r22,__zero_reg__
	cpc r23,__zero_reg__
	breq .L190
.LBB965:
	.loc 2 2382 0
	lds r18,osEE_kdb_var+10
	lds r19,osEE_kdb_var+10+1
	lsl r24
	rol r25
.LVL330:
	add r24,r18
	adc r25,r19
	.loc 2 2407 0
	movw r26,r24
	ld r30,X+
	ld r31,X
	ld __tmp_reg__,Z+
	ld r31,Z
	mov r30,__tmp_reg__
	ldd r24,Z+2
	ldd r25,Z+3
	movw r30,r22
	std Z+1,r25
	st Z,r24
.LVL331:
	.loc 2 2409 0
	ldi r25,0
	ldi r24,0
	ret
.LVL332:
.L189:
.LBE965:
	.loc 2 2375 0
	ldi r24,lo8(3)
	ldi r25,0
.LVL333:
	ret
.LVL334:
.L190:
	.loc 2 2378 0
	ldi r24,lo8(14)
	ldi r25,0
.LVL335:
/* epilogue start */
	.loc 2 2428 0
	ret
	.cfi_endproc
.LFE92:
	.size	GetCounterValue, .-GetCounterValue
	.section	.text.GetElapsedValue,"ax",@progbits
.global	GetElapsedValue
	.type	GetElapsedValue, @function
GetElapsedValue:
.LFB93:
	.loc 2 2437 0
	.cfi_startproc
.LVL336:
	push r28
.LCFI79:
	.cfi_def_cfa_offset 3
	.cfi_offset 28, -2
	push r29
.LCFI80:
	.cfi_def_cfa_offset 4
	.cfi_offset 29, -3
/* prologue: function */
/* frame size = 0 */
/* stack size = 2 */
.L__stack_usage = 2
.LVL337:
.LBB966:
.LBB967:
	.loc 1 744 0
	ldi r25,0
.LBE967:
.LBE966:
	.loc 2 2474 0
	lds r18,osEE_kdb_var+12
	lds r19,osEE_kdb_var+12+1
	cp r24,r18
	cpc r25,r19
	brsh .L195
	.loc 2 2477 0
	cp r22,__zero_reg__
	cpc r23,__zero_reg__
	breq .L197
	.loc 2 2477 0 discriminator 1
	cp r20,__zero_reg__
	cpc r21,__zero_reg__
	breq .L197
.LBB968:
	.loc 2 2482 0
	lds r18,osEE_kdb_var+10
	lds r19,osEE_kdb_var+10+1
	lsl r24
	rol r25
.LVL338:
	add r24,r18
	adc r25,r19
	movw r28,r24
	ld r26,Y
	ldd r27,Y+1
.LVL339:
	.loc 2 2484 0
	movw r28,r22
	ld r30,Y
	ldd r31,Y+1
.LVL340:
	.loc 2 2499 0
	adiw r26,2
	ld r24,X+
	ld r25,X
	sbiw r26,2+1
	cp r24,r30
	cpc r25,r31
	brlo .L198
.LBB969:
	.loc 2 2509 0
	ld __tmp_reg__,X+
	ld r27,X
	mov r26,__tmp_reg__
.LVL341:
	adiw r26,2
	ld r18,X+
	ld r19,X
.LVL342:
	.loc 2 2517 0
	cp r18,r30
	cpc r19,r31
	brlo .L193
	.loc 2 2517 0 is_stmt 0 discriminator 1
	movw r24,r18
	sub r24,r30
	sbc r25,r31
.L194:
	.loc 2 2515 0 is_stmt 1
	movw r30,r20
.LVL343:
	std Z+1,r25
	st Z,r24
.LVL344:
	.loc 2 2524 0
	movw r28,r22
	std Y+1,r19
	st Y,r18
.LVL345:
	.loc 2 2526 0
	ldi r25,0
	ldi r24,0
.LVL346:
.L191:
/* epilogue start */
.LBE969:
.LBE968:
	.loc 2 2546 0
	pop r29
	pop r28
	ret
.LVL347:
.L193:
.LBB971:
.LBB970:
	.loc 2 2517 0 discriminator 2
	sub r24,r30
	sbc r25,r31
	adiw r24,1
	add r24,r18
	adc r25,r19
	rjmp .L194
.LVL348:
.L195:
.LBE970:
.LBE971:
	.loc 2 2475 0
	ldi r24,lo8(3)
	ldi r25,0
.LVL349:
	rjmp .L191
.LVL350:
.L197:
	.loc 2 2478 0
	ldi r24,lo8(14)
	ldi r25,0
.LVL351:
	rjmp .L191
.LVL352:
.L198:
.LBB972:
	.loc 2 2500 0
	ldi r24,lo8(8)
	ldi r25,0
.LVL353:
.LBE972:
	.loc 2 2545 0
	rjmp .L191
	.cfi_endproc
.LFE93:
	.size	GetElapsedValue, .-GetElapsedValue
	.section	.text.IncrementCounter,"ax",@progbits
.global	IncrementCounter
	.type	IncrementCounter, @function
IncrementCounter:
.LFB94:
	.loc 2 2553 0
	.cfi_startproc
.LVL354:
	push r28
.LCFI81:
	.cfi_def_cfa_offset 3
	.cfi_offset 28, -2
/* prologue: function */
/* frame size = 0 */
/* stack size = 1 */
.L__stack_usage = 1
.LVL355:
.LBB973:
.LBB974:
	.loc 1 744 0
	ldi r25,0
.LBE974:
.LBE973:
	.loc 2 2592 0
	lds r18,osEE_kdb_var+12
	lds r19,osEE_kdb_var+12+1
	cp r24,r18
	cpc r25,r19
	brsh .L202
.LBB975:
	.loc 2 2597 0
	lds r18,osEE_kdb_var+10
	lds r19,osEE_kdb_var+10+1
	lsl r24
	rol r25
.LVL356:
	add r24,r18
	adc r25,r19
	movw r30,r24
	ld r24,Z
	ldd r25,Z+1
.LVL357:
.LBB976:
.LBB977:
.LBB978:
.LBB979:
.LBB980:
	.loc 3 116 0
	in r28,__SREG__
.LVL358:
.LBB981:
.LBB982:
	.loc 3 105 0
/* #APP */
 ;  105 "C:\Users\gabri\OneDrive\Desktop\OS4ES_~1\lab1.1\erika\src\ee_hal_internal.h" 1
	cli
 ;  0 "" 2
.LVL359:
/* #NOAPP */
.LBE982:
.LBE981:
.LBE980:
.LBE979:
.LBE978:
.LBE977:
	.loc 2 2622 0
	call osEE_counter_increment
.LVL360:
.LBB983:
.LBB984:
	.loc 1 172 0
	lds r30,osEE_cdb_var
	lds r31,osEE_cdb_var+1
.LBE984:
.LBE983:
	.loc 2 2626 0
	ld __tmp_reg__,Z+
	ld r31,Z
	mov r30,__tmp_reg__
	ldd r24,Z+7
	ldd r25,Z+8
	sbiw r24,2
	brsh .L201
	.loc 2 2627 0
	ldi r24,lo8(osEE_kdb_var)
	ldi r25,hi8(osEE_kdb_var)
	call osEE_scheduler_task_preemption_point
.LVL361:
.L201:
.LBB985:
.LBB986:
.LBB987:
.LBB988:
	.loc 3 123 0
	.loc 3 124 0
	out __SREG__,r28
.LVL362:
.LBE988:
.LBE987:
.LBE986:
.LBE985:
	.loc 2 2632 0
	ldi r25,0
	ldi r24,0
.LVL363:
.L199:
/* epilogue start */
.LBE976:
.LBE975:
	.loc 2 2650 0
	pop r28
	ret
.LVL364:
.L202:
	.loc 2 2593 0
	ldi r24,lo8(3)
	ldi r25,0
.LVL365:
	.loc 2 2649 0
	rjmp .L199
	.cfi_endproc
.LFE94:
	.size	IncrementCounter, .-IncrementCounter
	.section	.text.GetISRID,"ax",@progbits
.global	GetISRID
	.type	GetISRID, @function
GetISRID:
.LFB95:
	.loc 2 3316 0
	.cfi_startproc
/* prologue: function */
/* frame size = 0 */
/* stack size = 0 */
.L__stack_usage = 0
.LBB989:
.LBB990:
	.loc 1 172 0
	lds r30,osEE_cdb_var
	lds r31,osEE_cdb_var+1
	ld __tmp_reg__,Z+
	ld r31,Z
	mov r30,__tmp_reg__
.LBE990:
.LBE989:
	.loc 2 3321 0
	ldd r24,Z+7
	ldd r25,Z+8
	sbiw r24,2
	brne .L205
	.loc 2 3322 0
	ldd r24,Z+6
.LVL366:
	ret
.LVL367:
.L205:
	.loc 2 3324 0
	ldi r24,lo8(-1)
.LVL368:
/* epilogue start */
	.loc 2 3328 0
	ret
	.cfi_endproc
.LFE95:
	.size	GetISRID, .-GetISRID
	.text
.Letext0:
	.file 6 "d:\\downloads\\arduino-pr-beta1.9-build-119\\hardware\\tools\\avr\\avr\\include\\stdint.h"
	.file 7 "C:\\Users\\gabri\\OneDrive\\Desktop\\OS4ES_~1\\lab1.1\\erika\\inc/ee_platform_types.h"
	.file 8 "C:\\Users\\gabri\\OneDrive\\Desktop\\OS4ES_~1\\lab1.1\\erika\\inc/ee_api_types.h"
	.file 9 "C:\\Users\\gabri\\OneDrive\\Desktop\\OS4ES_~1\\lab1.1\\erika\\inc/ee_kernel_types.h"
	.file 10 "C:\\Users\\gabri\\OneDrive\\Desktop\\OS4ES_~1\\lab1.1\\erika\\inc/ee_hal_internal_types.h"
	.file 11 "C:\\Users\\gabri\\OneDrive\\Desktop\\OS4ES_~1\\lab1.1\\erika\\inc/ee_get_kernel_and_core.h"
	.file 12 "C:\\Users\\gabri\\OneDrive\\Desktop\\OS4ES_~1\\lab1.1\\erika\\src\\ee_scheduler.h"
	.file 13 "C:\\Users\\gabri\\OneDrive\\Desktop\\OS4ES_~1\\lab1.1\\erika\\inc/ee_oo_api_osek.h"