	.file	"ee_oo_sched_partitioned.c"
__SP_H__ = 0x3e
__SP_L__ = 0x3d
__SREG__ = 0x3f
__tmp_reg__ = 0
__zero_reg__ = 1
	.text
.Ltext0:
	.cfi_sections	.debug_frame
	.section	.text.osEE_scheduler_task_activated,"ax",@progbits
.global	osEE_scheduler_task_activated
	.type	osEE_scheduler_task_activated, @function
osEE_scheduler_task_activated:
.LFB67:
	.file 1 "C:\\Users\\gabri\\OneDrive\\Desktop\\OS4ES_~1\\lab1.1\\erika\\src\\ee_oo_sched_partitioned.c"
	.loc 1 100 0
	.cfi_startproc
.LVL0:
	push r14
.LCFI0:
	.cfi_def_cfa_offset 3
	.cfi_offset 14, -2
	push r15
.LCFI1:
	.cfi_def_cfa_offset 4
	.cfi_offset 15, -3
	push r16
.LCFI2:
	.cfi_def_cfa_offset 5
	.cfi_offset 16, -4
	push r17
.LCFI3:
	.cfi_def_cfa_offset 6
	.cfi_offset 17, -5
	push r28
.LCFI4:
	.cfi_def_cfa_offset 7
	.cfi_offset 28, -6
	push r29
.LCFI5:
	.cfi_def_cfa_offset 8
	.cfi_offset 29, -7
/* prologue: function */
/* frame size = 0 */
/* stack size = 6 */
.L__stack_usage = 6
	.loc 1 102 0
	movw r26,r22
	adiw r26,4
	ld r14,X+
	ld r15,X
.LVL1:
	.loc 1 105 0
	lds r30,osEE_cdb_var
	lds r31,osEE_cdb_var+1
.LVL2:
	.loc 1 106 0
	ld r24,Z
	ldd r25,Z+1
.LVL3:
	.loc 1 107 0
	movw r28,r24
	ldd r20,Y+4
	ldd r21,Y+5
.LVL4:
	ldd r26,Z+4
	ldd r27,Z+5
	ld r18,X+
	ld r19,X
	sbiw r26,1
	.loc 1 133 0
	movw r28,r20
	ldd r16,Y+1
	movw r28,r14
	ldd r17,Y+1
	cp r16,r17
	brsh .L2
.LVL5:
.LBB77:
.LBB78:
.LBB79:
	.file 2 "C:\\Users\\gabri\\OneDrive\\Desktop\\OS4ES_~1\\lab1.1\\erika\\inc/ee_scheduler_types.h"
	.loc 2 101 0
	std Z+5,r19
	std Z+4,r18
.LVL6:
.LBE79:
.LBE78:
	.loc 1 149 0
	ldi r18,lo8(2)
	ldi r19,0
	movw r28,r20
	std Y+3,r19
	std Y+2,r18
	.loc 1 152 0
	adiw r26,2+1
	st X,r23
	st -X,r22
	sbiw r26,2
	.loc 1 153 0
	ldd r18,Z+6
	ldd r19,Z+7
	adiw r26,1
	st X,r19
	st -X,r18
	.loc 1 154 0
	std Z+7,r27
	std Z+6,r26
	.loc 1 155 0
	std Z+1,r23
	st Z,r22
.LVL7:
.LBB80:
.LBB81:
	.file 3 "C:\\Users\\gabri\\OneDrive\\Desktop\\OS4ES_~1\\lab1.1\\erika\\src\\ee_kernel.h"
	.loc 3 211 0
	movw r30,r14
.LVL8:
	std Z+9,__zero_reg__
	std Z+8,__zero_reg__
.LVL9:
.LBE81:
.LBE80:
	.loc 1 160 0
	call osEE_change_context_from_running
.LVL10:
	.loc 1 162 0
	ldi r24,lo8(1)
	ldi r25,0
.LVL11:
.L1:
/* epilogue start */
.LBE77:
	.loc 1 173 0
	pop r29
	pop r28
	pop r17
	pop r16
	pop r15
	pop r14
.LVL12:
	ret
.LVL13:
.L2:
.LBB82:
.LBB83:
	.loc 1 83 0
	ldd r24,Y+2
	ldd r25,Y+3
.LVL14:
	or r24,r25
	brne .L4
	.loc 1 84 0
	ldi r24,lo8(1)
	ldi r25,0
	std Y+3,r25
	std Y+2,r24
.LVL15:
.LBB84:
.LBB85:
	.loc 3 211 0
	std Y+9,__zero_reg__
	std Y+8,__zero_reg__
.L4:
.LVL16:
.LBE85:
.LBE84:
.LBB86:
.LBB87:
	.loc 2 101 0
	std Z+5,r19
	std Z+4,r18
.LVL17:
	.loc 2 102 0
	adiw r26,1
	st X,__zero_reg__
	st -X,__zero_reg__
.LVL18:
.LBE87:
.LBE86:
	.loc 1 88 0
	movw r20,r22
.LVL19:
	movw r22,r26
.LVL20:
	movw r24,r30
	adiw r24,2
	call osEE_scheduler_rq_insert
.LVL21:
.LBE83:
.LBE82:
	.loc 1 169 0
	ldi r25,0
	ldi r24,0
.LVL22:
	.loc 1 172 0
	rjmp .L1
	.cfi_endproc
.LFE67:
	.size	osEE_scheduler_task_activated, .-osEE_scheduler_task_activated
	.section	.text.osEE_scheduler_task_insert,"ax",@progbits
.global	osEE_scheduler_task_insert
	.type	osEE_scheduler_task_insert, @function
osEE_scheduler_task_insert:
.LFB68:
	.loc 1 181 0
	.cfi_startproc
.LVL23:
/* prologue: function */
/* frame size = 0 */
/* stack size = 0 */
.L__stack_usage = 0
	movw r20,r22
	.loc 1 184 0
	movw r30,r22
	ldd r26,Z+4
	ldd r27,Z+5
.LVL24:
	.loc 1 188 0
	lds r30,osEE_cdb_var
	lds r31,osEE_cdb_var+1
.LVL25:
.LBB94:
.LBB95:
	.loc 1 83 0
	adiw r26,2
	ld r24,X+
	ld r25,X
	sbiw r26,2+1
.LVL26:
	or r24,r25
	brne .L6
	.loc 1 84 0
	ldi r24,lo8(1)
	ldi r25,0
	adiw r26,2+1
	st X,r25
	st -X,r24
	sbiw r26,2
.LVL27:
.LBB96:
.LBB97:
	.loc 3 211 0
	adiw r26,8+1
	st X,__zero_reg__
	st -X,__zero_reg__
	sbiw r26,8
.LVL28:
.L6:
.LBE97:
.LBE96:
.LBB98:
.LBB99:
	.loc 2 100 0
	ldd r26,Z+4
	ldd r27,Z+5
.LVL29:
	.loc 2 101 0
	ld r24,X+
	ld r25,X
	sbiw r26,1
	std Z+5,r25
	std Z+4,r24
	.loc 2 102 0
	adiw r26,1
	st X,__zero_reg__
	st -X,__zero_reg__
.LVL30:
.LBE99:
.LBE98:
	.loc 1 88 0
	movw r22,r26
.LVL31:
	movw r24,r30
	adiw r24,2
	jmp osEE_scheduler_rq_insert
.LVL32:
.LBE95:
.LBE94:
	.cfi_endproc
.LFE68:
	.size	osEE_scheduler_task_insert, .-osEE_scheduler_task_insert
	.section	.text.osEE_scheduler_task_unblocked,"ax",@progbits
.global	osEE_scheduler_task_unblocked
	.type	osEE_scheduler_task_unblocked, @function
osEE_scheduler_task_unblocked:
.LFB69:
	.loc 1 256 0
	.cfi_startproc
.LVL33:
	push r16
.LCFI6:
	.cfi_def_cfa_offset 3
	.cfi_offset 16, -2
	push r17
.LCFI7:
	.cfi_def_cfa_offset 4
	.cfi_offset 17, -3
	push r28
.LCFI8:
	.cfi_def_cfa_offset 5
	.cfi_offset 28, -4
	push r29
.LCFI9:
	.cfi_def_cfa_offset 6
	.cfi_offset 29, -5
/* prologue: function */
/* frame size = 0 */
/* stack size = 4 */
.L__stack_usage = 4
.LVL34:
	.loc 1 261 0
	movw r26,r22
	adiw r26,2
	ld r20,X+
	ld r21,X
.LVL35:
	.loc 1 263 0
	movw r30,r20
	ldd r28,Z+4
	ldd r29,Z+5
.LVL36:
	.loc 1 267 0
	lds r16,osEE_cdb_var
	lds r17,osEE_cdb_var+1
.LVL37:
	.loc 1 269 0
	ldi r24,lo8(2)
	ldi r25,0
.LVL38:
	std Y+3,r25
	std Y+2,r24
	.loc 1 270 0
	ldd r24,Z+11
	std Y+1,r24
.LVL39:
	.loc 1 277 0
	movw r24,r16
	adiw r24,2
	call osEE_scheduler_rq_insert
.LVL40:
	.loc 1 280 0
	sbiw r24,1
	brne .L10
	.loc 1 282 0
	movw r26,r16
	ld r30,X+
	ld r31,X
	ldd __tmp_reg__,Z+4
	ldd r31,Z+5
	mov r30,__tmp_reg__
	.loc 1 281 0
	ldi r24,lo8(1)
.LVL41:
	ldi r25,0
	ldd r19,Y+1
	ldd r18,Z+1
	cp r18,r19
	brlo .L7
	ldi r24,0
.LVL42:
.L7:
/* epilogue start */
	.loc 1 302 0
	pop r29
	pop r28
.LVL43:
	pop r17
	pop r16
.LVL44:
	ret
.LVL45:
.L10:
	.loc 1 259 0
	ldi r24,0
.LVL46:
	ldi r25,0
.LVL47:
	.loc 1 301 0
	rjmp .L7
	.cfi_endproc
.LFE69:
	.size	osEE_scheduler_task_unblocked, .-osEE_scheduler_task_unblocked
	.section	.text.osEE_scheduler_task_terminated,"ax",@progbits
.global	osEE_scheduler_task_terminated
	.type	osEE_scheduler_task_terminated, @function
osEE_scheduler_task_terminated:
.LFB70:
	.loc 1 310 0
	.cfi_startproc
.LVL48:
	push r10
.LCFI10:
	.cfi_def_cfa_offset 3
	.cfi_offset 10, -2
	push r11
.LCFI11:
	.cfi_def_cfa_offset 4
	.cfi_offset 11, -3
	push r12
.LCFI12:
	.cfi_def_cfa_offset 5
	.cfi_offset 12, -4
	push r13
.LCFI13:
	.cfi_def_cfa_offset 6
	.cfi_offset 13, -5
	push r14
.LCFI14:
	.cfi_def_cfa_offset 7
	.cfi_offset 14, -6
	push r15
.LCFI15:
	.cfi_def_cfa_offset 8
	.cfi_offset 15, -7
	push r16
.LCFI16:
	.cfi_def_cfa_offset 9
	.cfi_offset 16, -8
	push r17
.LCFI17:
	.cfi_def_cfa_offset 10
	.cfi_offset 17, -9
	push r28
.LCFI18:
	.cfi_def_cfa_offset 11
	.cfi_offset 28, -10
	push r29
.LCFI19:
	.cfi_def_cfa_offset 12
	.cfi_offset 29, -11
/* prologue: function */
/* frame size = 0 */
/* stack size = 10 */
.L__stack_usage = 10
	.loc 1 312 0
	lds r28,osEE_cdb_var
	lds r29,osEE_cdb_var+1
.LVL49:
.LBB100:
	.loc 1 320 0
	movw r30,r28
	ld r14,Z+
	ld r15,Z+
	movw r12,r30
.LVL50:
	.loc 1 322 0
	movw r30,r14
	ldd r16,Z+4
	ldd r17,Z+5
.LVL51:
	.loc 1 325 0
	movw r30,r22
	std Z+1,r15
	st Z,r14
	.loc 1 327 0
	movw r30,r16
	ldd r24,Z+2
	ldd r25,Z+3
.LVL52:
	sbiw r24,4
	brne .L12
.LBB101:
	.loc 1 330 0
	movw r22,r12
.LVL53:
	ldi r24,lo8(osEE_cdb_var)
	ldi r25,hi8(osEE_cdb_var)
	call osEE_scheduler_core_pop_running
.LVL54:
	movw r10,r24
.LVL55:
	.loc 1 332 0
	ld r12,Y
	ldd r13,Y+1
.LVL56:
	.loc 1 336 0
	cp r14,r12
	cpc r15,r13
	breq .L13
	.loc 1 337 0
	movw r24,r14
	call osEE_task_end
.LVL57:
.L14:
.LBB102:
.LBB103:
	.loc 2 124 0
	ldd r24,Y+4
	ldd r25,Y+5
	movw r30,r10
	std Z+1,r25
	st Z,r24
	.loc 2 125 0
	std Y+5,r11
	std Y+4,r10
.LVL58:
.L11:
.LBE103:
.LBE102:
.LBE101:
.LBE100:
	.loc 1 393 0
	movw r24,r12
/* epilogue start */
	pop r29
	pop r28
.LVL59:
	pop r17
	pop r16
.LVL60:
	pop r15
	pop r14
.LVL61:
	pop r13
	pop r12
.LVL62:
	pop r11
	pop r10
	ret
.LVL63:
.L13:
.LBB109:
.LBB104:
	.loc 1 344 0
	movw r30,r16
	ld r24,Z
	subi r24,lo8(-(-1))
	st Z,r24
	rjmp .L14
.LVL64:
.L12:
.LBE104:
.LBB105:
	.loc 1 351 0
	ldd r22,Y+6
	ldd r23,Y+7
.LVL65:
	.loc 1 355 0
	movw r30,r22
	ld r24,Z
	ldd r25,Z+1
	std Y+7,r25
	std Y+6,r24
	.loc 1 361 0
	movw r30,r14
	ldd r24,Z+11
	movw r30,r16
	std Z+1,r24
	.loc 1 362 0
	ldi r24,lo8(1)
	ldi r25,0
	std Z+3,r25
	std Z+2,r24
	.loc 1 366 0
	ld r24,Z
	cpi r24,lo8(1)
	brne .L16
.LVL66:
.LBB106:
.LBB107:
	.loc 3 211 0
	std Z+9,__zero_reg__
	std Z+8,__zero_reg__
.L16:
.LBE107:
.LBE106:
	.loc 1 371 0
	movw r20,r14
	movw r24,r12
	call osEE_scheduler_rq_insert
.LVL67:
.LBB108:
	.loc 1 375 0
	movw r22,r12
	ldi r24,lo8(osEE_cdb_var)
	ldi r25,hi8(osEE_cdb_var)
	call osEE_scheduler_core_rq_preempt_stk
.LVL68:
	.loc 1 377 0
	or r24,r25
	brne .L17
	.loc 1 381 0
	ldd r30,Y+6
	ldd r31,Y+7
	ldd r12,Z+2
	ldd r13,Z+3
.LVL69:
	.loc 1 382 0
	std Y+1,r13
	st Y,r12
	rjmp .L11
.LVL70:
.L17:
	.loc 1 384 0
	ld r12,Y
	ldd r13,Y+1
.LVL71:
.LBE108:
.LBE105:
.LBE109:
	.loc 1 392 0
	rjmp .L11
	.cfi_endproc
.LFE70:
	.size	osEE_scheduler_task_terminated, .-osEE_scheduler_task_terminated
	.section	.text.osEE_scheduler_task_preemption_point,"ax",@progbits
.global	osEE_scheduler_task_preemption_point
	.type	osEE_scheduler_task_preemption_point, @function
osEE_scheduler_task_preemption_point:
.LFB71:
	.loc 1 400 0
	.cfi_startproc
.LVL72:
	push r28
.LCFI20:
	.cfi_def_cfa_offset 3
	.cfi_offset 28, -2
	push r29
.LCFI21:
	.cfi_def_cfa_offset 4
	.cfi_offset 29, -3
/* prologue: function */
/* frame size = 0 */
/* stack size = 2 */
.L__stack_usage = 2
	.loc 1 404 0
	lds r28,osEE_cdb_var
	lds r29,osEE_cdb_var+1
.LVL73:
	.loc 1 411 0
	movw r22,r28
	subi r22,-2
	sbci r23,-1
	ldi r24,lo8(osEE_cdb_var)
	ldi r25,hi8(osEE_cdb_var)
.LVL74:
	call osEE_scheduler_core_rq_preempt_stk
.LVL75:
	.loc 1 416 0
	sbiw r24,0
	breq .L20
.LVL76:
.LBB110:
	.loc 1 419 0
	ld r22,Y
	ldd r23,Y+1
	call osEE_change_context_from_running
.LVL77:
	.loc 1 421 0
	ldi r24,lo8(1)
	ldi r25,0
.LVL78:
.L18:
/* epilogue start */
.LBE110:
	.loc 1 427 0
	pop r29
	pop r28
.LVL79:
	ret
.LVL80:
.L20:
	.loc 1 423 0
	ldi r25,0
	ldi r24,0
.LVL81:
	.loc 1 426 0
	rjmp .L18
	.cfi_endproc
.LFE71:
	.size	osEE_scheduler_task_preemption_point, .-osEE_scheduler_task_preemption_point
	.section	.text.osEE_scheduler_task_set_running,"ax",@progbits
.global	osEE_scheduler_task_set_running
	.type	osEE_scheduler_task_set_running, @function
osEE_scheduler_task_set_running:
.LFB72:
	.loc 1 436 0
	.cfi_startproc
.LVL82:
	push r28
.LCFI22:
	.cfi_def_cfa_offset 3
	.cfi_offset 28, -2
	push r29
.LCFI23:
	.cfi_def_cfa_offset 4
	.cfi_offset 29, -3
/* prologue: function */
/* frame size = 0 */
/* stack size = 2 */
.L__stack_usage = 2
	.loc 1 438 0
	lds r30,osEE_cdb_var
	lds r31,osEE_cdb_var+1
.LVL83:
	.loc 1 439 0
	ld r24,Z
	ldd r25,Z+1
.LVL84:
	.loc 1 441 0
	ldd r18,Z+6
	ldd r19,Z+7
.LVL85:
	.loc 1 444 0
	movw r28,r24
	ldd r26,Y+4
	ldd r27,Y+5
	adiw r26,2
	ld r28,X+
	ld r29,X
	sbiw r26,2+1
	sbiw r28,4
	brne .L22
	.loc 1 445 0
	ldi r28,lo8(2)
	ldi r29,0
	adiw r26,2+1
	st X,r29
	st -X,r28
	sbiw r26,2
.L22:
	.loc 1 447 0
	std Z+1,r23
	st Z,r22
	.loc 1 451 0
	cp r20,__zero_reg__
	cpc r21,__zero_reg__
	brne .L23
.LVL86:
.LBB111:
.LBB112:
	.loc 2 100 0
	ldd r26,Z+4
	ldd r27,Z+5
.LVL87:
	.loc 2 101 0
	ld r20,X+
	ld r21,X
	sbiw r26,1
.LVL88:
	std Z+5,r21
	std Z+4,r20
	.loc 2 102 0
	adiw r26,1
	st X,__zero_reg__
	st -X,__zero_reg__
.LVL89:
.LBE112:
.LBE111:
	.loc 1 454 0
	std Z+7,r27
	std Z+6,r26
.L24:
	.loc 1 461 0
	ldd __tmp_reg__,Z+6
	ldd r31,Z+7
	mov r30,__tmp_reg__
.LVL90:
	std Z+3,r23
	std Z+2,r22
	.loc 1 462 0
	std Z+1,r19
	st Z,r18
/* epilogue start */
	.loc 1 465 0
	pop r29
	pop r28
	.loc 1 464 0
	jmp osEE_change_context_from_running
.LVL91:
.L23:
	.loc 1 457 0
	std Z+7,r21
	std Z+6,r20
	rjmp .L24
	.cfi_endproc
.LFE72:
	.size	osEE_scheduler_task_set_running, .-osEE_scheduler_task_set_running
	.text
.Letext0:
	.file 4 "d:\\downloads\\arduino-pr-beta1.9-build-119\\hardware\\tools\\avr\\avr\\include\\stdint.h"
	.file 5 "C:\\Users\\gabri\\OneDrive\\Desktop\\OS4ES_~1\\lab1.1\\erika\\inc/ee_platform_types.h"
	.file 6 "C:\\Users\\gabri\\OneDrive\\Desktop\\OS4ES_~1\\lab1.1\\erika\\inc/ee_api_types.h"
	.file 7 "C:\\Users\\gabri\\OneDrive\\Desktop\\OS4ES_~1\\lab1.1\\erika\\inc/ee_kernel_types.h"
	.file 8 "C:\\Users\\gabri\\OneDrive\\Desktop\\OS4ES_~1\\lab1.1\\erika\\inc/ee_hal_internal_types.h"
	.file 9 "C:\\Users\\gabri\\OneDrive\\Desktop\\OS4ES_~1\\lab1.1\\erika\\inc/ee_get_kernel_and_core.h"
	.file 10 "C:\\Users\\gabri\\OneDrive\\Desktop\\OS4ES_~1\\lab1.1\\erika\\src\\ee_scheduler.h"