	.file	"ee_oo_scheduler.c"
__SP_H__ = 0x3e
__SP_L__ = 0x3d
__SREG__ = 0x3f
__tmp_reg__ = 0
__zero_reg__ = 1
	.text
.Ltext0:
	.cfi_sections	.debug_frame
	.section	.text.osEE_scheduler_core_rq_preempt_stk,"ax",@progbits
.global	osEE_scheduler_core_rq_preempt_stk
	.type	osEE_scheduler_core_rq_preempt_stk, @function
osEE_scheduler_core_rq_preempt_stk:
.LFB67:
	.file 1 "C:\\Users\\gabri\\OneDrive\\Desktop\\OS4ES_~1\\lab1.1\\erika\\src\\ee_oo_scheduler.c"
	.loc 1 240 0
	.cfi_startproc
.LVL0:
	push r16
.LCFI0:
	.cfi_def_cfa_offset 3
	.cfi_offset 16, -2
	push r17
.LCFI1:
	.cfi_def_cfa_offset 4
	.cfi_offset 17, -3
	push r28
.LCFI2:
	.cfi_def_cfa_offset 5
	.cfi_offset 28, -4
	push r29
.LCFI3:
	.cfi_def_cfa_offset 6
	.cfi_offset 29, -5
/* prologue: function */
/* frame size = 0 */
/* stack size = 4 */
.L__stack_usage = 4
	.loc 1 241 0
	movw r28,r24
	ld r26,Y
	ldd r27,Y+1
.LVL1:
	.loc 1 242 0
	movw r28,r22
	ld r30,Y
	ldd r31,Y+1
.LVL2:
	.loc 1 243 0
	adiw r26,6
	ld r28,X+
	ld r29,X
	sbiw r26,6+1
.LVL3:
	.loc 1 248 0
	sbiw r28,0
	breq .L2
	.loc 1 249 0
	ldd r24,Y+2
	ldd r25,Y+3
.LVL4:
	.loc 1 250 0
	sbiw r30,0
	brne .+2
	rjmp .L7
.LBB9:
	.loc 1 252 0
	movw r28,r24
.LVL5:
	ldd r16,Y+4
	ldd r17,Y+5
.LVL6:
	.loc 1 254 0
	ldd r18,Z+2
	ldd r19,Z+3
	movw r28,r18
	ldd r20,Y+4
	ldd r21,Y+5
	.loc 1 253 0
	movw r28,r16
	ldd r19,Y+1
	movw r28,r20
	ldd r18,Y+1
	cp r19,r18
	brsh .L7
.LVL7:
	.loc 1 260 0
	ldi r18,lo8(2)
	ldi r19,0
	movw r28,r16
.LVL8:
.L8:
.LBE9:
	.loc 1 270 0
	std Y+3,r19
	std Y+2,r18
.LVL9:
	.loc 1 279 0
	ld r18,Z
	ldd r19,Z+1
	movw r28,r22
	std Y+1,r19
	st Y,r18
.LVL10:
.LBB10:
.LBB11:
	.loc 1 63 0
	ldd r28,Z+2
	ldd r29,Z+3
.LVL11:
	.loc 1 64 0
	ldd r18,Y+4
	ldd r19,Y+5
.LVL12:
	.loc 1 72 0
	adiw r26,6
	ld r20,X+
	ld r21,X
	sbiw r26,6+1
	std Z+1,r21
	st Z,r20
	.loc 1 74 0
	adiw r26,6+1
	st X,r31
	st -X,r30
	sbiw r26,6
	.loc 1 75 0
	st X+,r28
	st X,r29
.LBB12:
	.loc 1 80 0
	ldd r20,Y+12
.LVL13:
	.loc 1 81 0
	movw r30,r18
.LVL14:
	ldd r21,Z+1
	cp r21,r20
	brsh .L1
	.loc 1 82 0
	std Z+1,r20
.LVL15:
.L1:
/* epilogue start */
.LBE12:
.LBE11:
.LBE10:
	.loc 1 295 0
	pop r29
	pop r28
	pop r17
	pop r16
	ret
.LVL16:
.L2:
	.loc 1 264 0
	sbiw r30,0
	breq .L7
	.loc 1 269 0
	movw r28,r24
.LVL17:
	ldd r24,Y+4
	ldd r25,Y+5
.LVL18:
	.loc 1 270 0
	movw r28,r24
.LVL19:
	ldd r20,Y+4
	ldd r21,Y+5
	ldi r18,lo8(2)
	ldi r19,0
	movw r28,r20
	rjmp .L8
.LVL20:
.L7:
	.loc 1 287 0
	ldi r25,0
	ldi r24,0
.LVL21:
	.loc 1 293 0
	rjmp .L1
	.cfi_endproc
.LFE67:
	.size	osEE_scheduler_core_rq_preempt_stk, .-osEE_scheduler_core_rq_preempt_stk
	.section	.text.osEE_sn_priority_insert,"ax",@progbits
.global	osEE_sn_priority_insert
	.type	osEE_sn_priority_insert, @function
osEE_sn_priority_insert:
.LFB68:
	.loc 1 306 0
	.cfi_startproc
.LVL22:
	push r28
.LCFI4:
	.cfi_def_cfa_offset 3
	.cfi_offset 28, -2
	push r29
.LCFI5:
	.cfi_def_cfa_offset 4
	.cfi_offset 29, -3
/* prologue: function */
/* frame size = 0 */
/* stack size = 2 */
.L__stack_usage = 2
	.loc 1 307 0
	movw r26,r22
	adiw r26,2
	ld r30,X+
	ld r31,X
.LVL23:
	.loc 1 309 0
	cp r20,__zero_reg__
	cpc r21,__zero_reg__
	breq .L10
	.loc 1 309 0 is_stmt 0 discriminator 1
	ldd r18,Z+11
.LVL24:
.L11:
	.loc 1 314 0 is_stmt 1 discriminator 4
	movw r26,r24
	ld r30,X+
	ld r31,X
.LVL25:
	.loc 1 313 0 discriminator 4
	ldi r27,0
	ldi r26,0
.LVL26:
.L12:
	.loc 1 318 0
	sbiw r30,0
	brne .L16
.L15:
	.loc 1 338 0
	sbiw r26,0
	breq .L17
	.loc 1 339 0
	st X+,r22
	st X,r23
	.loc 1 315 0
	ldi r25,0
	ldi r24,0
.LVL27:
.L18:
	.loc 1 345 0
	movw r26,r22
	st X+,r30
	st X,r31
/* epilogue start */
	.loc 1 348 0
	pop r29
	pop r28
	ret
.LVL28:
.L10:
	.loc 1 309 0 discriminator 2
	ldd __tmp_reg__,Z+4
	ldd r31,Z+5
	mov r30,__tmp_reg__
.LVL29:
	ldd r18,Z+1
	rjmp .L11
.LVL30:
.L16:
.LBB13:
	.loc 1 320 0
	ldd r28,Z+2
	ldd r29,Z+3
.LVL31:
	.loc 1 323 0
	cp r20,__zero_reg__
	cpc r21,__zero_reg__
	breq .L13
	.loc 1 324 0
	ldd r19,Y+11
.LVL32:
.L14:
	.loc 1 329 0
	cp r19,r18
	brlo .L15
.LVL33:
	.loc 1 332 0
	movw r26,r30
	ld __tmp_reg__,Z+
	ld r31,Z
	mov r30,__tmp_reg__
.LVL34:
	rjmp .L12
.LVL35:
.L13:
	.loc 1 326 0
	ldd __tmp_reg__,Y+4
	ldd r29,Y+5
	mov r28,__tmp_reg__
.LVL36:
	ldd r19,Y+1
.LVL37:
	rjmp .L14
.LVL38:
.L17:
.LBE13:
	.loc 1 341 0
	movw r26,r24
.LVL39:
	st X+,r22
	st X,r23
.LVL40:
	.loc 1 342 0
	ldi r24,lo8(1)
	ldi r25,0
.LVL41:
	rjmp .L18
	.cfi_endproc
.LFE68:
	.size	osEE_sn_priority_insert, .-osEE_sn_priority_insert
	.section	.text.osEE_scheduler_rq_insert,"ax",@progbits
.global	osEE_scheduler_rq_insert
	.type	osEE_scheduler_rq_insert, @function
osEE_scheduler_rq_insert:
.LFB66:
	.loc 1 224 0
	.cfi_startproc
.LVL42:
/* prologue: function */
/* frame size = 0 */
/* stack size = 0 */
.L__stack_usage = 0
	.loc 1 225 0
	movw r30,r22
	std Z+3,r21
	std Z+2,r20
	.loc 1 228 0
	ldi r20,lo8(1)
	ldi r21,0
.LVL43:
	jmp osEE_sn_priority_insert
.LVL44:
	.cfi_endproc
.LFE66:
	.size	osEE_scheduler_rq_insert, .-osEE_scheduler_rq_insert
	.section	.text.osEE_scheduler_core_pop_running,"ax",@progbits
.global	osEE_scheduler_core_pop_running
	.type	osEE_scheduler_core_pop_running, @function
osEE_scheduler_core_pop_running:
.LFB69:
	.loc 1 356 0
	.cfi_startproc
.LVL45:
	push r14
.LCFI6:
	.cfi_def_cfa_offset 3
	.cfi_offset 14, -2
	push r15
.LCFI7:
	.cfi_def_cfa_offset 4
	.cfi_offset 15, -3
	push r16
.LCFI8:
	.cfi_def_cfa_offset 5
	.cfi_offset 16, -4
	push r17
.LCFI9:
	.cfi_def_cfa_offset 6
	.cfi_offset 17, -5
	push r28
.LCFI10:
	.cfi_def_cfa_offset 7
	.cfi_offset 28, -6
	push r29
.LCFI11:
	.cfi_def_cfa_offset 8
	.cfi_offset 29, -7
/* prologue: function */
/* frame size = 0 */
/* stack size = 6 */
.L__stack_usage = 6
	movw r16,r24
	.loc 1 357 0
	movw r30,r24
	ld r28,Z
	ldd r29,Z+1
.LVL46:
	.loc 1 358 0
	ldd r14,Y+6
	ldd r15,Y+7
.LVL47:
	.loc 1 364 0
	movw r30,r14
	ld r24,Z
	ldd r25,Z+1
.LVL48:
	std Y+7,r25
	std Y+6,r24
.LBB14:
	.loc 1 387 0
	movw r24,r16
	call osEE_scheduler_core_rq_preempt_stk
.LVL49:
	.loc 1 392 0
	or r24,r25
	brne .L20
	.loc 1 389 0
	ldd r30,Y+6
	ldd r31,Y+7
.LBB15:
	.loc 1 403 0
	sbiw r30,0
	breq .L22
	.loc 1 405 0
	ldd r24,Z+2
	ldd r25,Z+3
.LVL50:
.L23:
	.loc 1 411 0
	std Y+1,r25
	st Y,r24
.LVL51:
.L20:
.LBE15:
.LBE14:
	.loc 1 423 0
	movw r24,r14
/* epilogue start */
	pop r29
	pop r28
.LVL52:
	pop r17
	pop r16
.LVL53:
	pop r15
	pop r14
.LVL54:
	ret
.LVL55:
.L22:
.LBB17:
.LBB16:
	.loc 1 408 0
	movw r30,r16
.LVL56:
	ldd r24,Z+4
	ldd r25,Z+5
.LVL57:
	rjmp .L23
.LBE16:
.LBE17:
	.cfi_endproc
.LFE69:
	.size	osEE_scheduler_core_pop_running, .-osEE_scheduler_core_pop_running
	.text
.Letext0:
	.file 2 "d:\\downloads\\arduino-pr-beta1.9-build-119\\hardware\\tools\\avr\\avr\\include\\stdint.h"
	.file 3 "C:\\Users\\gabri\\OneDrive\\Desktop\\OS4ES_~1\\lab1.1\\erika\\inc/ee_platform_types.h"
	.file 4 "C:\\Users\\gabri\\OneDrive\\Desktop\\OS4ES_~1\\lab1.1\\erika\\inc/ee_api_types.h"
	.file 5 "C:\\Users\\gabri\\OneDrive\\Desktop\\OS4ES_~1\\lab1.1\\erika\\inc/ee_scheduler_types.h"
	.file 6 "C:\\Users\\gabri\\OneDrive\\Desktop\\OS4ES_~1\\lab1.1\\erika\\inc/ee_kernel_types.h"
	.file 7 "C:\\Users\\gabri\\OneDrive\\Desktop\\OS4ES_~1\\lab1.1\\erika\\inc/ee_hal_internal_types.h"
	.file 8 "C:\\Users\\gabri\\OneDrive\\Desktop\\OS4ES_~1\\lab1.1\\erika\\inc/ee_get_kernel_and_core.h"
	.file 9 "C:\\Users\\gabri\\OneDrive\\Desktop\\OS4ES_~1\\lab1.1\\erika\\src\\ee_scheduler.h"
	.file 10 "C:\\Users\\gabri\\OneDrive\\Desktop\\OS4ES_~1\\lab1.1\\erika\\src\\ee_kernel.h"