	.file	"ee_oo_alarm.c"
__SP_H__ = 0x3e
__SP_L__ = 0x3d
__SREG__ = 0x3f
__tmp_reg__ = 0
__zero_reg__ = 1
	.text
.Ltext0:
	.cfi_sections	.debug_frame
	.section	.text.osEE_alarm_set_rel,"ax",@progbits
.global	osEE_alarm_set_rel
	.type	osEE_alarm_set_rel, @function
osEE_alarm_set_rel:
.LFB65:
	.file 1 "C:\\Users\\gabri\\OneDrive\\Desktop\\OS4ES_~1\\lab1.1\\erika\\src\\ee_oo_alarm.c"
	.loc 1 62 0
	.cfi_startproc
.LVL0:
	push r28
.LCFI0:
	.cfi_def_cfa_offset 3
	.cfi_offset 28, -2
	push r29
.LCFI1:
	.cfi_def_cfa_offset 4
	.cfi_offset 29, -3
/* prologue: function */
/* frame size = 0 */
/* stack size = 2 */
.L__stack_usage = 2
	movw r26,r22
	ld r30,X+
	ld r31,X
.LVL1:
	.loc 1 77 0
	ldd r26,Z+4
	ldd r27,Z+5
	cpi r26,2
	cpc r27,__zero_reg__
	brsh .L6
	.loc 1 80 0
	std Z+7,r19
	std Z+6,r18
	.loc 1 79 0
	sbiw r26,1
	brne .L3
.LVL2:
.LBB16:
.LBB17:
	.file 2 "C:\\Users\\gabri\\OneDrive\\Desktop\\OS4ES_~1\\lab1.1\\erika\\src\\ee_kernel.h"
	.loc 2 789 0
	movw r28,r24
	ldd r18,Y+2
	ldd r19,Y+3
.LVL3:
	.loc 2 791 0
	ld r26,Y
	ldd r27,Y+1
	adiw r26,2
	ld r24,X+
	ld r25,X
.LVL4:
	.loc 2 793 0
	movw r22,r18
.LVL5:
	sub r22,r20
	sbc r23,r21
	cp r22,r24
	cpc r23,r25
	brlo .L4
	.loc 2 794 0
	add r20,r24
	adc r21,r25
.LVL6:
.L5:
.LBE17:
.LBE16:
	.loc 1 83 0
	std Z+3,r21
	std Z+2,r20
	.loc 1 84 0
	ldi r24,lo8(4)
	ldi r25,0
	std Z+5,r25
	std Z+4,r24
.LVL7:
.L7:
	.loc 1 96 0
	ldi r25,0
	ldi r24,0
.LVL8:
.L1:
/* epilogue start */
	.loc 1 102 0
	pop r29
	pop r28
	ret
.LVL9:
.L4:
.LBB19:
.LBB18:
	.loc 2 796 0
	subi r20,1
	sbc r21,__zero_reg__
.LVL10:
	add r20,r24
	adc r21,r25
.LVL11:
	sub r20,r18
	sbc r21,r19
.LVL12:
	rjmp .L5
.LVL13:
.L3:
.LBE18:
.LBE19:
	.loc 1 90 0
	ldi r18,lo8(2)
	ldi r19,0
.LVL14:
	std Z+5,r19
	std Z+4,r18
	.loc 1 92 0
	call osEE_counter_insert_rel_trigger
.LVL15:
	rjmp .L7
.LVL16:
.L6:
	.loc 1 78 0
	ldi r24,lo8(7)
	ldi r25,0
.LVL17:
	.loc 1 101 0
	rjmp .L1
	.cfi_endproc
.LFE65:
	.size	osEE_alarm_set_rel, .-osEE_alarm_set_rel
	.section	.text.osEE_alarm_set_abs,"ax",@progbits
.global	osEE_alarm_set_abs
	.type	osEE_alarm_set_abs, @function
osEE_alarm_set_abs:
.LFB66:
	.loc 1 112 0
	.cfi_startproc
.LVL18:
/* prologue: function */
/* frame size = 0 */
/* stack size = 0 */
.L__stack_usage = 0
	movw r26,r22
	ld r30,X+
	ld r31,X
.LVL19:
	.loc 1 127 0
	ldd r26,Z+4
	ldd r27,Z+5
	cpi r26,2
	cpc r27,__zero_reg__
	brsh .L11
	.loc 1 130 0
	std Z+7,r19
	std Z+6,r18
	.loc 1 129 0
	sbiw r26,1
	brne .L10
	.loc 1 133 0
	std Z+3,r21
	std Z+2,r20
	.loc 1 134 0
	ldi r24,lo8(4)
	ldi r25,0
.LVL20:
	std Z+5,r25
	std Z+4,r24
.LVL21:
.L12:
	.loc 1 146 0
	ldi r25,0
	ldi r24,0
	ret
.LVL22:
.L10:
	.loc 1 140 0
	ldi r18,lo8(2)
	ldi r19,0
.LVL23:
	std Z+5,r19
	std Z+4,r18
	.loc 1 142 0
	call osEE_counter_insert_abs_trigger
.LVL24:
	rjmp .L12
.LVL25:
.L11:
	.loc 1 128 0
	ldi r24,lo8(7)
	ldi r25,0
.LVL26:
/* epilogue start */
	.loc 1 152 0
	ret
	.cfi_endproc
.LFE66:
	.size	osEE_alarm_set_abs, .-osEE_alarm_set_abs
	.section	.text.osEE_alarm_cancel,"ax",@progbits
.global	osEE_alarm_cancel
	.type	osEE_alarm_cancel, @function
osEE_alarm_cancel:
.LFB67:
	.loc 1 159 0
	.cfi_startproc
.LVL27:
/* prologue: function */
/* frame size = 0 */
/* stack size = 0 */
.L__stack_usage = 0
	.loc 1 164 0
	movw r26,r24
	ld r30,X+
	ld r31,X
.LVL28:
	.loc 1 174 0
	ldd r18,Z+4
	ldd r19,Z+5
	cpi r18,2
	cpc r19,__zero_reg__
	brlo .L16
	.loc 1 176 0
	cpi r18,2
	cpc r19,__zero_reg__
	breq .L15
	.loc 1 177 0
	ldi r24,lo8(1)
	ldi r25,0
.LVL29:
	std Z+5,r25
	std Z+4,r24
.LVL30:
.L17:
	.loc 1 182 0
	ldi r25,0
	ldi r24,0
	ret
.LVL31:
.L15:
	movw r22,r24
	.loc 1 166 0
	movw r26,r24
	adiw r26,2
	ld r24,X+
	ld r25,X
.LVL32:
	.loc 1 180 0
	std Z+5,__zero_reg__
	std Z+4,__zero_reg__
	.loc 1 181 0
	call osEE_counter_cancel_trigger
.LVL33:
	rjmp .L17
.LVL34:
.L16:
	.loc 1 175 0
	ldi r24,lo8(5)
	ldi r25,0
.LVL35:
/* epilogue start */
	.loc 1 188 0
	ret
	.cfi_endproc
.LFE67:
	.size	osEE_alarm_cancel, .-osEE_alarm_cancel
	.section	.text.osEE_alarm_get,"ax",@progbits
.global	osEE_alarm_get
	.type	osEE_alarm_get, @function
osEE_alarm_get:
.LFB68:
	.loc 1 196 0
	.cfi_startproc
.LVL36:
	push r28
.LCFI2:
	.cfi_def_cfa_offset 3
	.cfi_offset 28, -2
	push r29
.LCFI3:
	.cfi_def_cfa_offset 4
	.cfi_offset 29, -3
/* prologue: function */
/* frame size = 0 */
/* stack size = 2 */
.L__stack_usage = 2
	.loc 1 201 0
	movw r28,r24
	ld r26,Y
	ldd r27,Y+1
.LVL37:
	.loc 1 211 0
	adiw r26,4
	ld r18,X+
	ld r19,X
	sbiw r26,4+1
	.loc 1 212 0
	ldi r24,lo8(5)
	ldi r25,0
.LVL38:
	.loc 1 211 0
	cpi r18,2
	cpc r19,__zero_reg__
	brlo .L18
	.loc 1 203 0
	ldd r30,Y+2
	ldd r31,Y+3
	.loc 1 214 0
	adiw r26,2
	ld r24,X+
	ld r25,X
.LVL39:
.LBB22:
.LBB23:
	.loc 2 813 0
	ldd r20,Z+2
	ldd r21,Z+3
.LVL40:
	.loc 2 815 0
	ld __tmp_reg__,Z+
	ld r31,Z
	mov r30,__tmp_reg__
.LVL41:
	ldd r18,Z+2
	ldd r19,Z+3
.LVL42:
	.loc 2 817 0
	cp r18,r24
	cpc r19,r25
	brsh .L20
.LVL43:
.L23:
	.loc 2 820 0
	sub r24,r18
	sbc r25,r19
.LVL44:
.LBE23:
.LBE22:
	.loc 1 214 0
	movw r30,r22
	std Z+1,r25
	st Z,r24
.LVL45:
	.loc 1 215 0
	ldi r25,0
	ldi r24,0
.LVL46:
.L18:
/* epilogue start */
	.loc 1 221 0
	pop r29
	pop r28
.LVL47:
	ret
.LVL48:
.L20:
.LBB25:
.LBB24:
	.loc 2 820 0
	add r24,r20
	adc r25,r21
.LVL49:
	adiw r24,1
	rjmp .L23
.LBE24:
.LBE25:
	.cfi_endproc
.LFE68:
	.size	osEE_alarm_get, .-osEE_alarm_get
	.text
.Letext0:
	.file 3 "d:\\downloads\\arduino-pr-beta1.9-build-119\\hardware\\tools\\avr\\avr\\include\\stdint.h"
	.file 4 "C:\\Users\\gabri\\OneDrive\\Desktop\\OS4ES_~1\\lab1.1\\erika\\inc/ee_platform_types.h"
	.file 5 "C:\\Users\\gabri\\OneDrive\\Desktop\\OS4ES_~1\\lab1.1\\erika\\inc/ee_api_types.h"
	.file 6 "C:\\Users\\gabri\\OneDrive\\Desktop\\OS4ES_~1\\lab1.1\\erika\\inc/ee_scheduler_types.h"
	.file 7 "C:\\Users\\gabri\\OneDrive\\Desktop\\OS4ES_~1\\lab1.1\\erika\\inc/ee_kernel_types.h"
	.file 8 "C:\\Users\\gabri\\OneDrive\\Desktop\\OS4ES_~1\\lab1.1\\erika\\inc/ee_hal_internal_types.h"
	.file 9 "C:\\Users\\gabri\\OneDrive\\Desktop\\OS4ES_~1\\lab1.1\\erika\\inc/ee_get_kernel_and_core.h"